ccopy_reg
_reconstructor
p0
(cLOTlib.TopN
TopN
p1
c__builtin__
object
p2
Ntp3
Rp4
(dp5
S'Q'
p6
(lp7
g0
(cLOTlib.TopN
QueueItem
p8
g2
Ntp9
Rp10
(dp11
S'priority'
p12
F-23942.6871870959
sS'item'
p13
g0
(c__main__
MyHypothesis
p14
g2
Ntp15
Rp16
(dp17
S'posterior_score'
p18
F-23942.6871870959
sS'rules_vector'
p19
NsS'likelihood_temperature'
p20
F1.0
sS'value'
p21
g0
(cLOTlib.FunctionNode
FunctionNode
p22
g2
Ntp23
Rp24
(dp25
S'name'
p26
S'flatten2str'
p27
sS'parent'
p28
NsS'self'
p29
g24
sS'args'
p30
(lp31
g0
(g22
g2
Ntp32
Rp33
(dp34
g26
S'cons_'
p35
sg28
g24
sg29
g0
(g22
g2
Ntp36
Rp37
g34
bsg30
(lp38
g0
(g22
g2
Ntp39
Rp40
(dp41
g26
g35
sg28
g33
sg29
g40
sg30
(lp42
g0
(g22
g2
Ntp43
Rp44
(dp45
g26
S'sample_'
p46
sg28
g40
sg29
g44
sg30
(lp47
g0
(g22
g2
Ntp48
Rp49
(dp50
g26
S'bilabial_()'
p51
sg28
g44
sg29
g49
sg30
NsS'returntype'
p52
S'SET'
p53
sS'added_rule'
p54
Nsbasg52
S'EXPR'
p55
sg54
Nsbag0
(g22
g2
Ntp56
Rp57
(dp58
g26
g46
sg28
g40
sg29
g57
sg30
(lp59
g0
(g22
g2
Ntp60
Rp61
(dp62
g26
S'palatal_()'
p63
sg28
g57
sg29
g61
sg30
Nsg52
g53
sg54
Nsbasg52
g55
sg54
Nsbasg52
g55
sg54
Nsbag0
(g22
g2
Ntp64
Rp65
(dp66
g26
g35
sg28
g33
sg29
g65
sg30
(lp67
g0
(g22
g2
Ntp68
Rp69
(dp70
g26
g46
sg28
g65
sg29
g69
sg30
(lp71
g0
(g22
g2
Ntp72
Rp73
(dp74
g26
S'glottal_()'
p75
sg28
g69
sg29
g73
sg30
Nsg52
g53
sg54
Nsbasg52
g55
sg54
Nsbag0
(g22
g2
Ntp76
Rp77
(dp78
g26
g46
sg28
g65
sg29
g77
sg30
(lp79
g0
(g22
g2
Ntp80
Rp81
(dp82
g26
S'frontvowels_()'
p83
sg28
g77
sg29
g81
sg30
Nsg52
g53
sg54
Nsbasg52
g55
sg54
Nsbasg52
g55
sg54
Nsbasg52
g55
sg54
Nsbasg52
S'START'
p84
sg54
NsbsS'likelihood'
p85
F-23929.817992404845
sS'grammar'
p86
(iLOTlib.Grammar
Grammar
p87
(dp88
S'rules'
p89
ccollections
defaultdict
p90
(c__builtin__
list
p91
tp92
Rp93
S'TERMINAL'
p94
(lp95
g0
(cLOTlib.GrammarRule
GrammarRule
p96
g2
Ntp97
Rp98
(dp99
S'to'
p100
NsS'bv_prefix'
p101
Nsg26
S'b'
p102
sS'p'
p103
F250.0
sg29
g98
sS'nt'
p104
g94
sbag0
(g96
g2
Ntp105
Rp106
(dp107
g100
Nsg101
Nsg26
S'm'
p108
sg103
F250.0
sg29
g106
sg104
g94
sbag0
(g96
g2
Ntp109
Rp110
(dp111
g100
Nsg101
Nsg26
g103
sg103
F250.0
sg29
g110
sg104
g94
sbag0
(g96
g2
Ntp112
Rp113
(dp114
g100
Nsg101
Nsg26
S'i'
p115
sg103
F250.0
sg29
g113
sg104
g94
sbag0
(g96
g2
Ntp116
Rp117
(dp118
g100
Nsg101
Nsg26
S'o'
p119
sg103
F250.0
sg29
g117
sg104
g94
sbasg84
(lp120
g0
(g96
g2
Ntp121
Rp122
(dp123
g100
(lp124
g55
asg101
Nsg26
g27
sg103
F1.0
sg29
g122
sg104
g84
sbasg53
(lp125
g0
(g96
g2
Ntp126
Rp127
(dp128
g100
(lp129
g53
ag53
asg101
Nsg26
S'strunion'
p130
sg103
F0.1
sg29
g127
sg104
g53
sbag0
(g96
g2
Ntp131
Rp132
(dp133
g100
(lp134
g53
ag53
asg101
Nsg26
S'strintersection'
p135
sg103
F0.1
sg29
g132
sg104
g53
sbag0
(g96
g2
Ntp136
Rp137
(dp138
g100
(lp139
g53
ag53
asg101
Nsg26
S'strdifference'
p140
sg103
F0.1
sg29
g137
sg104
g53
sbag0
(g96
g2
Ntp141
Rp142
(dp143
g100
Nsg101
Nsg26
g51
sg103
F1.0
sg29
g142
sg104
g53
sbag0
(g96
g2
Ntp144
Rp145
(dp146
g100
Nsg101
Nsg26
g83
sg103
F1.0
sg29
g145
sg104
g53
sbag0
(g96
g2
Ntp147
Rp148
(dp149
g100
Nsg101
Nsg26
S'fricatives_()'
p150
sg103
F1.0
sg29
g148
sg104
g53
sbag0
(g96
g2
Ntp151
Rp152
(dp153
g100
Nsg101
Nsg26
S'alveolar_()'
p154
sg103
F1.0
sg29
g152
sg104
g53
sbag0
(g96
g2
Ntp155
Rp156
(dp157
g100
Nsg101
Nsg26
g75
sg103
F1.0
sg29
g156
sg104
g53
sbag0
(g96
g2
Ntp158
Rp159
(dp160
g100
Nsg101
Nsg26
g63
sg103
F1.0
sg29
g159
sg104
g53
sbag0
(g96
g2
Ntp161
Rp162
(dp163
g100
Nsg101
Nsg26
S'velars_()'
p164
sg103
F1.0
sg29
g162
sg104
g53
sbasg55
(lp165
g0
(g96
g2
Ntp166
Rp167
(dp168
g100
(lp169
g53
asg101
Nsg26
g46
sg103
F1.0
sg29
g167
sg104
g55
sbag0
(g96
g2
Ntp170
Rp171
(dp172
g100
(lp173
g55
ag55
asg101
Nsg26
g35
sg103
F0.5
sg29
g171
sg104
g55
sbassg29
g87
sS'rule_count'
p174
I18
sS'start'
p175
g84
sS'BV_P'
p176
F10.0
sS'bv_count'
p177
I0
sbsS'stored_likelihood'
p178
Nsg29
g0
(g14
g2
Ntp179
Rp180
(dp181
g18
F-23939.19523535097
sg19
Nsg20
F1.0
sg21
g0
(g22
g2
Ntp182
Rp183
(dp184
g26
g27
sg28
Nsg29
g183
sg30
(lp185
g0
(g22
g2
Ntp186
Rp187
(dp188
g26
g35
sg28
g183
sg29
g187
sg30
(lp189
g0
(g22
g2
Ntp190
Rp191
(dp192
g26
g35
sg28
g187
sg29
g191
sg30
(lp193
g0
(g22
g2
Ntp194
Rp195
(dp196
g26
g46
sg28
g191
sg29
g195
sg30
(lp197
g0
(g22
g2
Ntp198
Rp199
(dp200
g26
g75
sg28
g195
sg29
g199
sg30
Nsg52
g53
sg54
Nsbasg52
g55
sg54
Nsbag0
(g22
g2
Ntp201
Rp202
(dp203
g26
g46
sg28
g191
sg29
g202
sg30
(lp204
g0
(g22
g2
Ntp205
Rp206
(dp207
g26
g164
sg28
g202
sg29
g206
sg30
Nsg52
g53
sg54
Nsbasg52
g55
sg54
Nsbasg52
g55
sg54
Nsbag0
(g22
g2
Ntp208
Rp209
(dp210
g26
g46
sg28
g187
sg29
g209
sg30
(lp211
g0
(g22
g2
Ntp212
Rp213
(dp214
g26
g154
sg28
g209
sg29
g213
sg30
Nsg52
g53
sg54
Nsbasg52
g55
sg54
Nsbasg52
g55
sg54
Nsbasg52
g84
sg54
Nsbsg85
F-23929.817992404845
sg86
g87
sg178
Nsg29
g180
sS'f'
p215
NsS'll_counts'
p216
ccollections
Counter
p217
((dp218
S'h k n'
p219
I24
sS'h k r'
p220
I31
sS'h N s'
p221
I31
sS'h N r'
p222
I22
sS'h k z'
p223
I22
sS'h g d'
p224
I29
sS'h N t'
p225
I29
sS'h N z'
p226
I22
sS'h k t'
p227
I26
sS'h g n'
p228
I17
sS'h k s'
p229
I22
sS'h g l'
p230
I25
sS'h g r'
p231
I23
sS'h g s'
p232
I15
sS'h k l'
p233
I25
sS'h g t'
p234
I22
sS'h N d'
p235
I29
sS'h g z'
p236
I18
sS'h k d'
p237
I28
sS'h N n'
p238
I25
sS'h N l'
p239
I27
stp240
Rp241
sS'prior'
p242
F-9.377242946123747
sS'prior_temperature'
p243
F1.0
sS'kwargs'
p244
(dp245
S'display'
p246
S'lambda : %s'
p247
ssS'fvalue'
p248
Nsg246
g247
sS'maxnodes'
p249
I25
sbsg215
Nsg216
g217
((dp250
S'w j h i'
p251
I77
sS'w j h e'
p252
I69
sS'p j h e'
p253
I55
sS'b j h e'
p254
I76
sS'm j h e'
p255
I50
sS'm j h i'
p256
I70
sS'p j h i'
p257
I61
sS'b j h i'
p258
I54
stp259
Rp260
sg242
F-12.869194691054366
sg243
F1.0
sg244
g245
sg248
Nsg246
g247
sg249
I25
sbsbag0
(g8
g2
Ntp261
Rp262
(dp263
g12
F-23939.19523535097
sg13
g0
(g14
g2
Ntp264
Rp265
(dp266
g18
F-23939.19523535097
sg19
Nsg20
F1.0
sg21
g0
(g22
g2
Ntp267
Rp268
(dp269
g26
g27
sg28
Nsg29
g268
sg30
(lp270
g0
(g22
g2
Ntp271
Rp272
(dp273
g26
g35
sg28
g268
sg29
g272
sg30
(lp274
g0
(g22
g2
Ntp275
Rp276
(dp277
g26
g35
sg28
g272
sg29
g276
sg30
(lp278
g0
(g22
g2
Ntp279
Rp280
(dp281
g26
g46
sg28
g276
sg29
g280
sg30
(lp282
g0
(g22
g2
Ntp283
Rp284
(dp285
g26
g154
sg28
g280
sg29
g0
(g22
g2
Ntp286
Rp287
g285
bsg30
Nsg52
g53
sg54
Nsbasg52
g55
sg54
Nsbag0
(g22
g2
Ntp288
Rp289
(dp290
g26
g46
sg28
g276
sg29
g289
sg30
(lp291
g0
(g22
g2
Ntp292
Rp293
(dp294
g26
g164
sg28
g289
sg29
g293
sg30
Nsg52
g53
sg54
Nsbasg52
g55
sg54
Nsbasg52
g55
sg54
Nsbag0
(g22
g2
Ntp295
Rp296
(dp297
g26
g46
sg28
g272
sg29
g296
sg30
(lp298
g0
(g22
g2
Ntp299
Rp300
(dp301
g26
g154
sg28
g296
sg29
g300
sg30
Nsg52
g53
sg54
Nsbasg52
g55
sg54
Nsbasg52
g55
sg54
Nsbasg52
g84
sg54
Nsbsg85
F-23929.817992404845
sg86
g87
sg178
Nsg29
g180
sg215
Nsg216
g217
((dp302
S'z N d'
p303
I4
sS'z N l'
p304
I1
sS'z N n'
p305
I2
sS'z N s'
p306
I2
sS'z N r'
p307
I4
sS'z N t'
p308
I5
sS'z N z'
p309
I9
sS'n N t'
p310
I1
sS'n N s'
p311
I5
sS'n N r'
p312
I4
sS'r N z'
p313
I3
sS'n N z'
p314
I7
sS'n N d'
p315
I2
sS'd k t'
p316
I4
sS'n N l'
p317
I6
sS'n N n'
p318
I4
sS'r k t'
p319
I3
sS'd g z'
p320
I3
sS'r k s'
p321
I4
sS'd g t'
p322
I4
sS'd g r'
p323
I2
sS'd g s'
p324
I5
sS'r k z'
p325
I3
sS'r k d'
p326
I5
sS'd g l'
p327
I5
sS'd k d'
p328
I7
sS'r k l'
p329
I6
sS'd g d'
p330
I5
sS'n k z'
p331
I3
sS'l N t'
p332
I4
sS'r g l'
p333
I3
sS'l N r'
p334
I6
sS'r g n'
p335
I1
sS'l g z'
p336
I4
sS'n k r'
p337
I2
sS'n k s'
p338
I1
sS'n k t'
p339
I6
sS'l N z'
p340
I3
sS'r g z'
p341
I2
sS'l N d'
p342
I6
sS'n k l'
p343
I5
sS'n k n'
p344
I5
sS'l N n'
p345
I4
sS'r g r'
p346
I1
sS'r g s'
p347
I5
sS'r g t'
p348
I3
sS'n g n'
p349
I1
sS's k s'
p350
I4
sS'r g d'
p351
I1
sS't g n'
p352
I3
sS'l g d'
p353
I5
sS'l g n'
p354
I5
sS'l g l'
p355
I5
sS'l g t'
p356
I5
sS't g z'
p357
I5
sS'l g s'
p358
I2
sS't g t'
p359
I5
sS's k z'
p360
I5
sS't g r'
p361
I2
sS't N n'
p362
I2
sS't N l'
p363
I6
sS't N d'
p364
I5
sS't N z'
p365
I1
sS't N t'
p366
I3
sS't N s'
p367
I3
sS't N r'
p368
I5
sS'n g z'
p369
I5
sS'z k l'
p370
I2
sS's k d'
p371
I3
sS'z k n'
p372
I1
sS's N l'
p373
I6
sS's N n'
p374
I4
sS'z k d'
p375
I3
sS's k l'
p376
I5
sS's N d'
p377
I6
sS's k t'
p378
I4
sS's N z'
p379
I1
sS'z k z'
p380
I3
sS's k r'
p381
I1
sS'z k t'
p382
I3
sS's N r'
p383
I4
sS's N s'
p384
I6
sS's N t'
p385
I1
sS'z k r'
p386
I3
sS'z k s'
p387
I4
sS'l k z'
p388
I2
sS'd N z'
p389
I4
sS'l k r'
p390
I3
sS'l k s'
p391
I2
sS'd N t'
p392
I5
sS'd N s'
p393
I1
sS'd N r'
p394
I4
sS'l k t'
p395
I4
sS'd N n'
p396
I5
sS'd N l'
p397
I5
sS'l k n'
p398
I5
sS'l k l'
p399
I2
sS'd N d'
p400
I6
sS'l k d'
p401
I2
sS'n g d'
p402
I5
sS'z g r'
p403
I1
sS'z g s'
p404
I4
sS'z g t'
p405
I3
sS's g l'
p406
I3
sS's g n'
p407
I5
sS'n g l'
p408
I6
sS'z g z'
p409
I3
sS's g d'
p410
I4
sS'n g t'
p411
I2
sS's g z'
p412
I4
sS'z g d'
p413
I6
sS'n g r'
p414
I2
sS'n g s'
p415
I8
sS's g s'
p416
I1
sS's g r'
p417
I1
sS'z g l'
p418
I7
sS's g t'
p419
I3
sS'z g n'
p420
I2
sS't k r'
p421
I2
sS't k s'
p422
I4
sS'r N l'
p423
I1
sS't k t'
p424
I1
sS'r N n'
p425
I8
sS't k z'
p426
I3
sS'd k n'
p427
I2
sS'r N d'
p428
I2
sS'd k l'
p429
I3
sS'd k r'
p430
I2
sS'd k s'
p431
I12
sS'l g r'
p432
I4
sS't k d'
p433
I3
sS'd k z'
p434
I4
sS'r N s'
p435
I2
sS'r N r'
p436
I3
sS't k n'
p437
I1
sS'r N t'
p438
I1
sS't k l'
p439
I5
sS't g l'
p440
I5
sS'd g n'
p441
I3
sS't g d'
p442
I4
stp443
Rp444
sg242
F-9.377242946123747
sg243
F1.0
sg244
g245
sg248
Nsg246
g247
sg249
I25
sbsbag0
(g8
g2
Ntp445
Rp446
(dp447
g12
F-23942.6871870959
sg13
g0
(g14
g2
Ntp448
Rp449
(dp450
g18
F-23942.6871870959
sg19
Nsg20
F1.0
sg21
g0
(g22
g2
Ntp451
Rp452
(dp453
g26
g27
sg28
Nsg29
g452
sg30
(lp454
g0
(g22
g2
Ntp455
Rp456
(dp457
g26
g35
sg28
g452
sg29
g456
sg30
(lp458
g0
(g22
g2
Ntp459
Rp460
(dp461
g26
g35
sg28
g456
sg29
g460
sg30
(lp462
g0
(g22
g2
Ntp463
Rp464
(dp465
g26
g46
sg28
g460
sg29
g464
sg30
(lp466
g0
(g22
g2
Ntp467
Rp468
(dp469
g26
g63
sg28
g464
sg29
g0
(g22
g2
Ntp470
Rp471
g469
bsg30
Nsg52
g53
sg54
Nsbasg52
g55
sg54
Nsbag0
(g22
g2
Ntp472
Rp473
(dp474
g26
g46
sg28
g460
sg29
g473
sg30
(lp475
g0
(g22
g2
Ntp476
Rp477
(dp478
g26
g63
sg28
g473
sg29
g477
sg30
Nsg52
g53
sg54
Nsbasg52
g55
sg54
Nsbasg52
g55
sg54
Nsbag0
(g22
g2
Ntp479
Rp480
(dp481
g26
g35
sg28
g456
sg29
g480
sg30
(lp482
g0
(g22
g2
Ntp483
Rp484
(dp485
g26
g46
sg28
g480
sg29
g484
sg30
(lp486
g0
(g22
g2
Ntp487
Rp488
(dp489
g26
g75
sg28
g484
sg29
g488
sg30
Nsg52
g53
sg54
Nsbasg52
g55
sg54
Nsbag0
(g22
g2
Ntp490
Rp491
(dp492
g26
g46
sg28
g480
sg29
g491
sg30
(lp493
g0
(g22
g2
Ntp494
Rp495
(dp496
g26
g83
sg28
g491
sg29
g495
sg30
Nsg52
g53
sg54
Nsbasg52
g55
sg54
Nsbasg52
g55
sg54
Nsbasg52
g55
sg54
Nsbasg52
g84
sg54
Nsbsg85
F-23929.817992404845
sg86
g87
sg178
Nsg29
g180
sg215
Nsg216
g217
((dp497
S'j j h e'
p498
I242
sS'j j h i'
p499
I270
stp500
Rp501
sg242
F-12.869194691054366
sg243
F1.0
sg244
g245
sg248
Nsg246
g247
sg249
I25
sbsbag0
(g8
g2
Ntp502
Rp503
(dp504
g12
F-23939.19523535097
sg13
g0
(g14
g2
Ntp505
Rp506
(dp507
g18
F-23939.19523535097
sg19
Nsg20
F1.0
sg21
g0
(g22
g2
Ntp508
Rp509
(dp510
g26
g27
sg28
Nsg29
g0
(g22
g2
Ntp511
Rp512
g510
bsg30
(lp513
g0
(g22
g2
Ntp514
Rp515
(dp516
g26
g35
sg28
g509
sg29
g515
sg30
(lp517
g0
(g22
g2
Ntp518
Rp519
(dp520
g26
g35
sg28
g515
sg29
g519
sg30
(lp521
g0
(g22
g2
Ntp522
Rp523
(dp524
g26
g46
sg28
g519
sg29
g523
sg30
(lp525
g0
(g22
g2
Ntp526
Rp527
(dp528
g26
g51
sg28
g523
sg29
g527
sg30
Nsg52
g53
sg54
Nsbasg52
g55
sg54
Nsbag0
(g22
g2
Ntp529
Rp530
(dp531
g26
g46
sg28
g519
sg29
g530
sg30
(lp532
g0
(g22
g2
Ntp533
Rp534
(dp535
g26
g164
sg28
g530
sg29
g534
sg30
Nsg52
g53
sg54
Nsbasg52
g55
sg54
Nsbasg52
g55
sg54
Nsbag0
(g22
g2
Ntp536
Rp537
(dp538
g26
g46
sg28
g515
sg29
g537
sg30
(lp539
g0
(g22
g2
Ntp540
Rp541
(dp542
g26
g63
sg28
g537
sg29
g541
sg30
Nsg52
g53
sg54
Nsbasg52
g55
sg54
Nsbasg52
g55
sg54
Nsbasg52
g84
sg54
Nsbsg85
F-23929.817992404845
sg86
g87
sg178
Nsg29
g180
sg215
Nsg216
g217
((dp543
S'p g j'
p544
I42
sS'p N j'
p545
I43
sS'w k j'
p546
I42
sS'w N j'
p547
I50
sS'm k j'
p548
I38
sS'm N j'
p549
I47
sS'w g j'
p550
I32
sS'm g j'
p551
I41
sS'b k j'
p552
I38
sS'b g j'
p553
I47
sS'b N j'
p554
I51
sS'p k j'
p555
I41
stp556
Rp557
sg242
F-9.377242946123747
sg243
F1.0
sg244
g245
sg248
Nsg246
g247
sg249
I25
sbsbag0
(g8
g2
Ntp558
Rp559
(dp560
g12
F-23939.19523535097
sg13
g0
(g14
g2
Ntp561
Rp562
(dp563
g18
F-23939.19523535097
sg19
Nsg20
F1.0
sg21
g0
(g22
g2
Ntp564
Rp565
(dp566
g26
g27
sg28
Nsg29
g565
sg30
(lp567
g0
(g22
g2
Ntp568
Rp569
(dp570
g26
g35
sg28
g565
sg29
g569
sg30
(lp571
g0
(g22
g2
Ntp572
Rp573
(dp574
g26
g35
sg28
g569
sg29
g0
(g22
g2
Ntp575
Rp576
g574
bsg30
(lp577
g0
(g22
g2
Ntp578
Rp579
(dp580
g26
g46
sg28
g573
sg29
g579
sg30
(lp581
g0
(g22
g2
Ntp582
Rp583
(dp584
g26
g164
sg28
g579
sg29
g583
sg30
Nsg52
g53
sg54
Nsbasg52
g55
sg54
Nsbag0
(g22
g2
Ntp585
Rp586
(dp587
g26
g46
sg28
g573
sg29
g586
sg30
(lp588
g0
(g22
g2
Ntp589
Rp590
(dp591
g26
g150
sg28
g586
sg29
g590
sg30
Nsg52
g53
sg54
Nsbasg52
g55
sg54
Nsbasg52
g55
sg54
Nsbag0
(g22
g2
Ntp592
Rp593
(dp594
g26
g46
sg28
g569
sg29
g593
sg30
(lp595
g0
(g22
g2
Ntp596
Rp597
(dp598
g26
g83
sg28
g593
sg29
g597
sg30
Nsg52
g53
sg54
Nsbasg52
g55
sg54
Nsbasg52
g55
sg54
Nsbasg52
g84
sg54
Nsbsg85
F-23929.817992404845
sg86
g87
sg178
Nsg29
g180
sg215
Nsg216
g217
((dp599
S'k t i'
p600
I13
sS'N z e'
p601
I18
sS'N z i'
p602
I14
sS'g z e'
p603
I15
sS'k s e'
p604
I24
sS'g v e'
p605
I13
sS'g h i'
p606
I8
sS'g h e'
p607
I8
sS'N s e'
p608
I10
sS'N s i'
p609
I13
sS'g t i'
p610
I18
sS'k s i'
p611
I19
sS'g v i'
p612
I15
sS'k z i'
p613
I18
sS'g s i'
p614
I10
sS'g z i'
p615
I14
sS'g t e'
p616
I14
sS'g s e'
p617
I14
sS'k f e'
p618
I10
sS'k h i'
p619
I11
sS'k z e'
p620
I12
sS'k f i'
p621
I10
sS'k h e'
p622
I12
sS'k t e'
p623
I15
sS'g f e'
p624
I15
sS'N v i'
p625
I21
sS'N h e'
p626
I14
sS'N v e'
p627
I15
sS'N h i'
p628
I13
sS'g f i'
p629
I13
sS'k v i'
p630
I17
sS'N f i'
p631
I19
sS'N t i'
p632
I12
sS'N f e'
p633
I14
sS'N t e'
p634
I15
sS'k v e'
p635
I16
stp636
Rp637
sg242
F-9.377242946123747
sg243
F1.0
sg244
g245
sg248
Nsg246
g247
sg249
I25
sbsbag0
(g8
g2
Ntp638
Rp639
(dp640
g12
F-23939.19523535097
sg13
g0
(g14
g2
Ntp641
Rp642
(dp643
g18
F-23939.19523535097
sg19
Nsg20
F1.0
sg21
g0
(g22
g2
Ntp644
Rp645
(dp646
g26
g27
sg28
Nsg29
g645
sg30
(lp647
g0
(g22
g2
Ntp648
Rp649
(dp650
g26
g35
sg28
g645
sg29
g649
sg30
(lp651
g0
(g22
g2
Ntp652
Rp653
(dp654
g26
g35
sg28
g649
sg29
g653
sg30
(lp655
g0
(g22
g2
Ntp656
Rp657
(dp658
g26
g46
sg28
g653
sg29
g0
(g22
g2
Ntp659
Rp660
g658
bsg30
(lp661
g0
(g22
g2
Ntp662
Rp663
(dp664
g26
g63
sg28
g657
sg29
g663
sg30
Nsg52
g53
sg54
Nsbasg52
g55
sg54
Nsbag0
(g22
g2
Ntp665
Rp666
(dp667
g26
g46
sg28
g653
sg29
g666
sg30
(lp668
g0
(g22
g2
Ntp669
Rp670
(dp671
g26
g154
sg28
g666
sg29
g670
sg30
Nsg52
g53
sg54
Nsbasg52
g55
sg54
Nsbasg52
g55
sg54
Nsbag0
(g22
g2
Ntp672
Rp673
(dp674
g26
g46
sg28
g649
sg29
g673
sg30
(lp675
g0
(g22
g2
Ntp676
Rp677
(dp678
g26
g63
sg28
g673
sg29
g677
sg30
Nsg52
g53
sg54
Nsbasg52
g55
sg54
Nsbasg52
g55
sg54
Nsbasg52
g84
sg54
Nsbsg85
F-23929.817992404845
sg86
g87
sg178
Nsg29
g180
sg215
Nsg216
g217
((dp679
S'j t j'
p680
I71
sS'j d j'
p681
I83
sS'j r j'
p682
I68
sS'j l j'
p683
I91
sS'j n j'
p684
I65
sS'j s j'
p685
I73
sS'j z j'
p686
I61
stp687
Rp688
sg242
F-9.377242946123747
sg243
F1.0
sg244
g245
sg248
Nsg246
g247
sg249
I25
sbsbag0
(g8
g2
Ntp689
Rp690
(dp691
g12
F-23942.6871870959
sg13
g0
(g14
g2
Ntp692
Rp693
(dp694
g18
F-23942.6871870959
sg19
Nsg20
F1.0
sg21
g0
(g22
g2
Ntp695
Rp696
(dp697
g26
g27
sg28
Nsg29
g696
sg30
(lp698
g0
(g22
g2
Ntp699
Rp700
(dp701
g26
g35
sg28
g696
sg29
g700
sg30
(lp702
g0
(g22
g2
Ntp703
Rp704
(dp705
g26
g35
sg28
g700
sg29
g704
sg30
(lp706
g0
(g22
g2
Ntp707
Rp708
(dp709
g26
g46
sg28
g704
sg29
g708
sg30
(lp710
g0
(g22
g2
Ntp711
Rp712
(dp713
g26
g164
sg28
g708
sg29
g0
(g22
g2
Ntp714
Rp715
g713
bsg30
Nsg52
g53
sg54
Nsbasg52
g55
sg54
Nsbag0
(g22
g2
Ntp716
Rp717
(dp718
g26
g46
sg28
g704
sg29
g717
sg30
(lp719
g0
(g22
g2
Ntp720
Rp721
(dp722
g26
g63
sg28
g717
sg29
g721
sg30
Nsg52
g53
sg54
Nsbasg52
g55
sg54
Nsbasg52
g55
sg54
Nsbag0
(g22
g2
Ntp723
Rp724
(dp725
g26
g35
sg28
g700
sg29
g724
sg30
(lp726
g0
(g22
g2
Ntp727
Rp728
(dp729
g26
g46
sg28
g724
sg29
g728
sg30
(lp730
g0
(g22
g2
Ntp731
Rp732
(dp733
g26
g75
sg28
g728
sg29
g732
sg30
Nsg52
g53
sg54
Nsbasg52
g55
sg54
Nsbag0
(g22
g2
Ntp734
Rp735
(dp736
g26
g46
sg28
g724
sg29
g735
sg30
(lp737
g0
(g22
g2
Ntp738
Rp739
(dp740
g26
g83
sg28
g735
sg29
g739
sg30
Nsg52
g53
sg54
Nsbasg52
g55
sg54
Nsbasg52
g55
sg54
Nsbasg52
g55
sg54
Nsbasg52
g84
sg54
Nsbsg85
F-23929.817992404845
sg86
g87
sg178
Nsg29
g180
sg215
Nsg216
g217
((dp741
S'N j h i'
p742
I86
sS'k j h e'
p743
I83
sS'g j h e'
p744
I83
sS'g j h i'
p745
I91
sS'N j h e'
p746
I84
sS'k j h i'
p747
I85
stp748
Rp749
sg242
F-12.869194691054366
sg243
F1.0
sg244
g245
sg248
Nsg246
g247
sg249
I25
sbsbag0
(g8
g2
Ntp750
Rp751
(dp752
g12
F-23938.48966565041
sg13
g0
(g14
g2
Ntp753
Rp754
(dp755
g18
F-23938.48966565041
sg19
Nsg20
F1.0
sg21
g0
(g22
g2
Ntp756
Rp757
(dp758
g26
g27
sg28
Nsg29
g0
(g22
g2
Ntp759
Rp760
g758
bsg30
(lp761
g0
(g22
g2
Ntp762
Rp763
(dp764
g26
g46
sg28
g757
sg29
g763
sg30
(lp765
g0
(g22
g2
Ntp766
Rp767
(dp768
g26
g130
sg28
g763
sg29
g767
sg30
(lp769
g0
(g22
g2
Ntp770
Rp771
(dp772
g26
g51
sg28
g767
sg29
g771
sg30
Nsg52
g53
sg54
Nsbag0
(g22
g2
Ntp773
Rp774
(dp775
g26
g51
sg28
g767
sg29
g774
sg30
Nsg52
g53
sg54
Nsbasg52
g53
sg54
Nsbasg52
g55
sg54
Nsbasg52
g84
sg54
Nsbsg85
F-23929.817992404845
sg86
g87
sg178
Nsg29
g180
sg215
Nsg216
g217
((dp776
g103
I118
sg102
I138
sg108
I133
sS'w'
p777
I123
stp778
Rp779
sg242
F-8.671673245565247
sg243
F1.0
sg244
g245
sg248
Nsg246
g247
sg249
I25
sbsbag0
(g8
g2
Ntp780
Rp781
(dp782
g12
F-23935.70328360604
sg13
g0
(g14
g2
Ntp783
Rp784
(dp785
g18
F-23935.70328360604
sg19
Nsg20
F1.0
sg21
g0
(g22
g2
Ntp786
Rp787
(dp788
g26
g27
sg28
Nsg29
g787
sg30
(lp789
g0
(g22
g2
Ntp790
Rp791
(dp792
g26
g35
sg28
g787
sg29
g0
(g22
g2
Ntp793
Rp794
g792
bsg30
(lp795
g0
(g22
g2
Ntp796
Rp797
(dp798
g26
g46
sg28
g791
sg29
g797
sg30
(lp799
g0
(g22
g2
Ntp800
Rp801
(dp802
g26
g63
sg28
g797
sg29
g801
sg30
Nsg52
g53
sg54
Nsbasg52
g55
sg54
Nsbag0
(g22
g2
Ntp803
Rp804
(dp805
g26
g46
sg28
g791
sg29
g804
sg30
(lp806
g0
(g22
g2
Ntp807
Rp808
(dp809
g26
g164
sg28
g804
sg29
g808
sg30
Nsg52
g53
sg54
Nsbasg52
g55
sg54
Nsbasg52
g55
sg54
Nsbasg52
g84
sg54
Nsbsg85
F-23929.817992404845
sg86
g87
sg178
Nsg29
g180
sg215
Nsg216
g217
((dp810
S'j k'
p811
I164
sS'j g'
p812
I183
sS'j N'
p813
I165
stp814
Rp815
sg242
F-5.885291201193128
sg243
F1.0
sg244
g245
sg248
Nsg246
g247
sg249
I25
sbsbag0
(g8
g2
Ntp816
Rp817
(dp818
g12
F-23935.70328360604
sg13
g0
(g14
g2
Ntp819
Rp820
(dp821
g18
F-23935.70328360604
sg19
Nsg20
F1.0
sg21
g0
(g22
g2
Ntp822
Rp823
(dp824
g26
g27
sg28
Nsg29
g0
(g22
g2
Ntp825
Rp826
g824
bsg30
(lp827
g0
(g22
g2
Ntp828
Rp829
(dp830
g26
g35
sg28
g823
sg29
g829
sg30
(lp831
g0
(g22
g2
Ntp832
Rp833
(dp834
g26
g46
sg28
g829
sg29
g833
sg30
(lp835
g0
(g22
g2
Ntp836
Rp837
(dp838
g26
g154
sg28
g833
sg29
g837
sg30
Nsg52
g53
sg54
Nsbasg52
g55
sg54
Nsbag0
(g22
g2
Ntp839
Rp840
(dp841
g26
g46
sg28
g829
sg29
g840
sg30
(lp842
g0
(g22
g2
Ntp843
Rp844
(dp845
g26
g75
sg28
g840
sg29
g844
sg30
Nsg52
g53
sg54
Nsbasg52
g55
sg54
Nsbasg52
g55
sg54
Nsbasg52
g84
sg54
Nsbsg85
F-23929.817992404845
sg86
g87
sg178
Nsg29
g180
sg215
Nsg216
g217
((dp846
S's h'
p847
I79
sS'z h'
p848
I66
sS'n h'
p849
I87
sS'l h'
p850
I70
sS'r h'
p851
I64
sS't h'
p852
I79
sS'd h'
p853
I67
stp854
Rp855
sg242
F-5.885291201193128
sg243
F1.0
sg244
g245
sg248
Nsg246
g247
sg249
I25
sbsbag0
(g8
g2
Ntp856
Rp857
(dp858
g12
F-23935.70328360604
sg13
g0
(g14
g2
Ntp859
Rp860
(dp861
g18
F-23935.70328360604
sg19
Nsg20
F1.0
sg21
g0
(g22
g2
Ntp862
Rp863
(dp864
g26
g27
sg28
Nsg29
g863
sg30
(lp865
g0
(g22
g2
Ntp866
Rp867
(dp868
g26
g35
sg28
g863
sg29
g867
sg30
(lp869
g0
(g22
g2
Ntp870
Rp871
(dp872
g26
g46
sg28
g867
sg29
g0
(g22
g2
Ntp873
Rp874
g872
bsg30
(lp875
g0
(g22
g2
Ntp876
Rp877
(dp878
g26
g51
sg28
g871
sg29
g877
sg30
Nsg52
g53
sg54
Nsbasg52
g55
sg54
Nsbag0
(g22
g2
Ntp879
Rp880
(dp881
g26
g46
sg28
g867
sg29
g880
sg30
(lp882
g0
(g22
g2
Ntp883
Rp884
(dp885
g26
g75
sg28
g880
sg29
g884
sg30
Nsg52
g53
sg54
Nsbasg52
g55
sg54
Nsbasg52
g55
sg54
Nsbasg52
g84
sg54
Nsbsg85
F-23929.817992404845
sg86
g87
sg178
Nsg29
g180
sg215
Nsg216
g217
((dp886
S'b h'
p887
I138
sS'p h'
p888
I120
sS'w h'
p889
I118
sS'm h'
p890
I136
stp891
Rp892
sg242
F-5.885291201193128
sg243
F1.0
sg244
g245
sg248
Nsg246
g247
sg249
I25
sbsbag0
(g8
g2
Ntp893
Rp894
(dp895
g12
F-23938.48966565041
sg13
g0
(g14
g2
Ntp896
Rp897
(dp898
g18
F-23938.48966565041
sg19
Nsg20
F1.0
sg21
g0
(g22
g2
Ntp899
Rp900
(dp901
g26
g27
sg28
Nsg29
g900
sg30
(lp902
g0
(g22
g2
Ntp903
Rp904
(dp905
g26
g46
sg28
g900
sg29
g904
sg30
(lp906
g0
(g22
g2
Ntp907
Rp908
(dp909
g26
g140
sg28
g904
sg29
g0
(g22
g2
Ntp910
Rp911
g909
bsg30
(lp912
g0
(g22
g2
Ntp913
Rp914
(dp915
g26
g164
sg28
g908
sg29
g914
sg30
Nsg52
g53
sg54
Nsbag0
(g22
g2
Ntp916
Rp917
(dp918
g26
g154
sg28
g908
sg29
g917
sg30
Nsg52
g53
sg54
Nsbasg52
g53
sg54
Nsbasg52
g55
sg54
Nsbasg52
g84
sg54
Nsbsg85
F-23929.817992404845
sg86
g87
sg178
Nsg29
g180
sg215
Nsg216
g217
((dp919
S'k'
p920
I150
sS'g'
p921
I180
sS'N'
p922
I182
stp923
Rp924
sg242
F-8.671673245565247
sg243
F1.0
sg244
g245
sg248
Nsg246
g247
sg249
I25
sbsbag0
(g8
g2
Ntp925
Rp926
(dp927
g12
F-23935.70328360604
sg13
g0
(g14
g2
Ntp928
Rp929
(dp930
g18
F-23935.70328360604
sg19
Nsg20
F1.0
sg21
g0
(g22
g2
Ntp931
Rp932
(dp933
g26
g27
sg28
Nsg29
g932
sg30
(lp934
g0
(g22
g2
Ntp935
Rp936
(dp937
g26
g35
sg28
g932
sg29
g936
sg30
(lp938
g0
(g22
g2
Ntp939
Rp940
(dp941
g26
g46
sg28
g936
sg29
g0
(g22
g2
Ntp942
Rp943
g941
bsg30
(lp944
g0
(g22
g2
Ntp945
Rp946
(dp947
g26
g51
sg28
g940
sg29
g946
sg30
Nsg52
g53
sg54
Nsbasg52
g55
sg54
Nsbag0
(g22
g2
Ntp948
Rp949
(dp950
g26
g46
sg28
g936
sg29
g949
sg30
(lp951
g0
(g22
g2
Ntp952
Rp953
(dp954
g26
g63
sg28
g949
sg29
g953
sg30
Nsg52
g53
sg54
Nsbasg52
g55
sg54
Nsbasg52
g55
sg54
Nsbasg52
g84
sg54
Nsbsg85
F-23929.817992404845
sg86
g87
sg178
Nsg29
g180
sg215
Nsg216
g217
((dp955
S'p j'
p956
I140
sS'b j'
p957
I131
sS'm j'
p958
I122
sS'w j'
p959
I119
stp960
Rp961
sg242
F-5.885291201193128
sg243
F1.0
sg244
g245
sg248
Nsg246
g247
sg249
I25
sbsbag0
(g8
g2
Ntp962
Rp963
(dp964
g12
F-23935.70328360604
sg13
g0
(g14
g2
Ntp965
Rp966
(dp967
g18
F-23935.70328360604
sg19
Nsg20
F1.0
sg21
g0
(g22
g2
Ntp968
Rp969
(dp970
g26
g27
sg28
Nsg29
g969
sg30
(lp971
g0
(g22
g2
Ntp972
Rp973
(dp974
g26
g35
sg28
g969
sg29
g973
sg30
(lp975
g0
(g22
g2
Ntp976
Rp977
(dp978
g26
g46
sg28
g973
sg29
g977
sg30
(lp979
g0
(g22
g2
Ntp980
Rp981
(dp982
g26
g51
sg28
g977
sg29
g0
(g22
g2
Ntp983
Rp984
g982
bsg30
Nsg52
g53
sg54
Nsbasg52
g55
sg54
Nsbag0
(g22
g2
Ntp985
Rp986
(dp987
g26
g46
sg28
g973
sg29
g986
sg30
(lp988
g0
(g22
g2
Ntp989
Rp990
(dp991
g26
g154
sg28
g986
sg29
g990
sg30
Nsg52
g53
sg54
Nsbasg52
g55
sg54
Nsbasg52
g55
sg54
Nsbasg52
g84
sg54
Nsbsg85
F-23929.817992404845
sg86
g87
sg178
Nsg29
g180
sg215
Nsg216
g217
((dp992
S'p s'
p993
I17
sS'm t'
p994
I25
sS'm r'
p995
I22
sS'm s'
p996
I16
sS'm z'
p997
I14
sS'b s'
p998
I16
sS'm d'
p999
I22
sS'm n'
p1000
I19
sS'm l'
p1001
I16
sS'w l'
p1002
I11
sS'p r'
p1003
I20
sS'w n'
p1004
I14
sS'b r'
p1005
I15
sS'b t'
p1006
I13
sS'p t'
p1007
I25
sS'w d'
p1008
I22
sS'p z'
p1009
I18
sS'b z'
p1010
I14
sS'b l'
p1011
I18
sS'b n'
p1012
I20
sS'b d'
p1013
I18
sS'w z'
p1014
I20
sS'p d'
p1015
I20
sS'w t'
p1016
I13
sS'p l'
p1017
I18
sS'p n'
p1018
I26
sS'w r'
p1019
I22
sS'w s'
p1020
I18
stp1021
Rp1022
sg242
F-5.885291201193128
sg243
F1.0
sg244
g245
sg248
Nsg246
g247
sg249
I25
sbsbag0
(g8
g2
Ntp1023
Rp1024
(dp1025
g12
F-23939.19523535097
sg13
g180
sbag0
(g8
g2
Ntp1026
Rp1027
(dp1028
g12
F-23935.70328360604
sg13
g0
(g14
g2
Ntp1029
Rp1030
(dp1031
g18
F-23935.70328360604
sg19
Nsg20
F1.0
sg21
g0
(g22
g2
Ntp1032
Rp1033
(dp1034
g26
g27
sg28
Nsg29
g0
(g22
g2
Ntp1035
Rp1036
g1034
bsg30
(lp1037
g0
(g22
g2
Ntp1038
Rp1039
(dp1040
g26
g35
sg28
g1033
sg29
g1039
sg30
(lp1041
g0
(g22
g2
Ntp1042
Rp1043
(dp1044
g26
g46
sg28
g1039
sg29
g1043
sg30
(lp1045
g0
(g22
g2
Ntp1046
Rp1047
(dp1048
g26
g150
sg28
g1043
sg29
g1047
sg30
Nsg52
g53
sg54
Nsbasg52
g55
sg54
Nsbag0
(g22
g2
Ntp1049
Rp1050
(dp1051
g26
g46
sg28
g1039
sg29
g1050
sg30
(lp1052
g0
(g22
g2
Ntp1053
Rp1054
(dp1055
g26
g83
sg28
g1050
sg29
g1054
sg30
Nsg52
g53
sg54
Nsbasg52
g55
sg54
Nsbasg52
g55
sg54
Nsbasg52
g84
sg54
Nsbsg85
F-23929.817992404845
sg86
g87
sg178
Nsg29
g180
sg215
Nsg216
g217
((dp1056
S'z i'
p1057
I45
sS's i'
p1058
I41
sS'h i'
p1059
I45
sS'z e'
p1060
I37
sS'v i'
p1061
I44
sS's e'
p1062
I39
sS'h e'
p1063
I57
sS'f e'
p1064
I29
sS't e'
p1065
I55
sS'v e'
p1066
I33
sS'f i'
p1067
I44
sS't i'
p1068
I43
stp1069
Rp1070
sg242
F-5.885291201193128
sg243
F1.0
sg244
g245
sg248
Nsg246
g247
sg249
I25
sbsbag0
(g8
g2
Ntp1071
Rp1072
(dp1073
g12
F-23932.21133186111
sg13
g0
(g14
g2
Ntp1074
Rp1075
(dp1076
g18
F-23932.21133186111
sg19
Nsg20
F1.0
sg21
g0
(g22
g2
Ntp1077
Rp1078
(dp1079
g26
g27
sg28
Nsg29
g0
(g22
g2
Ntp1080
Rp1081
g1079
bsg30
(lp1082
g0
(g22
g2
Ntp1083
Rp1084
(dp1085
g26
g46
sg28
g1078
sg29
g1084
sg30
(lp1086
g0
(g22
g2
Ntp1087
Rp1088
(dp1089
g26
g150
sg28
g1084
sg29
g1088
sg30
Nsg52
g53
sg54
Nsbasg52
g55
sg54
Nsbasg52
g84
sg54
Nsbsg85
F-23929.817992404845
sg86
g87
sg178
Nsg29
g180
sg215
Nsg216
g217
((dp1090
S's'
p1091
I106
sS'z'
p1092
I78
sS't'
p1093
I78
sg215
I84
sS'h'
p1094
I77
sS'v'
p1095
I89
stp1096
Rp1097
sg242
F-2.3933394562625097
sg243
F1.0
sg244
g245
sg248
Nsg246
g247
sg249
I25
sbsbag0
(g8
g2
Ntp1098
Rp1099
(dp1100
g12
F-23932.21133186111
sg13
g0
(g14
g2
Ntp1101
Rp1102
(dp1103
g18
F-23932.21133186111
sg19
Nsg20
F1.0
sg21
g0
(g22
g2
Ntp1104
Rp1105
(dp1106
g26
g27
sg28
Nsg29
g1105
sg30
(lp1107
g0
(g22
g2
Ntp1108
Rp1109
(dp1110
g26
g46
sg28
g1105
sg29
g1109
sg30
(lp1111
g0
(g22
g2
Ntp1112
Rp1113
(dp1114
g26
g164
sg28
g1109
sg29
g0
(g22
g2
Ntp1115
Rp1116
g1114
bsg30
Nsg52
g53
sg54
Nsbasg52
g55
sg54
Nsbasg52
g84
sg54
Nsbsg85
F-23929.817992404845
sg86
g87
sg178
Nsg29
g180
sg215
Nsg216
g217
((dp1117
g920
I177
sg921
I152
sg922
I183
stp1118
Rp1119
sg242
F-2.3933394562625097
sg243
F1.0
sg244
g245
sg248
Nsg246
g247
sg249
I25
sbsbag0
(g8
g2
Ntp1120
Rp1121
(dp1122
g12
F-23935.70328360604
sg13
g0
(g14
g2
Ntp1123
Rp1124
(dp1125
g18
F-23935.70328360604
sg19
Nsg20
F1.0
sg21
g0
(g22
g2
Ntp1126
Rp1127
(dp1128
g26
g27
sg28
Nsg29
g1127
sg30
(lp1129
g0
(g22
g2
Ntp1130
Rp1131
(dp1132
g26
g35
sg28
g1127
sg29
g1131
sg30
(lp1133
g0
(g22
g2
Ntp1134
Rp1135
(dp1136
g26
g46
sg28
g1131
sg29
g0
(g22
g2
Ntp1137
Rp1138
g1136
bsg30
(lp1139
g0
(g22
g2
Ntp1140
Rp1141
(dp1142
g26
g154
sg28
g1135
sg29
g1141
sg30
Nsg52
g53
sg54
Nsbasg52
g55
sg54
Nsbag0
(g22
g2
Ntp1143
Rp1144
(dp1145
g26
g46
sg28
g1131
sg29
g1144
sg30
(lp1146
g0
(g22
g2
Ntp1147
Rp1148
(dp1149
g26
g164
sg28
g1144
sg29
g1148
sg30
Nsg52
g53
sg54
Nsbasg52
g55
sg54
Nsbasg52
g55
sg54
Nsbasg52
g84
sg54
Nsbsg85
F-23929.817992404845
sg86
g87
sg178
Nsg29
g180
sg215
Nsg216
g217
((dp1150
S'd g'
p1151
I15
sS'z k'
p1152
I19
sS's k'
p1153
I21
sS'l k'
p1154
I21
sS'r g'
p1155
I17
sS'l g'
p1156
I27
sS'r k'
p1157
I31
sS'd k'
p1158
I33
sS'z g'
p1159
I39
sS's g'
p1160
I30
sS't g'
p1161
I22
sS'n k'
p1162
I24
sS'n g'
p1163
I29
sS't k'
p1164
I26
sS'l N'
p1165
I19
sS's N'
p1166
I23
sS'z N'
p1167
I24
sS'd N'
p1168
I25
sS'r N'
p1169
I18
sS'n N'
p1170
I27
sS't N'
p1171
I22
stp1172
Rp1173
sg242
F-5.885291201193128
sg243
F1.0
sg244
g245
sg248
Nsg246
g247
sg249
I25
sbsbag0
(g8
g2
Ntp1174
Rp1175
(dp1176
g12
F-23932.21133186111
sg13
g0
(g14
g2
Ntp1177
Rp1178
(dp1179
g18
F-23932.21133186111
sg19
Nsg20
F1.0
sg21
g0
(g22
g2
Ntp1180
Rp1181
(dp1182
g26
g27
sg28
Nsg29
g0
(g22
g2
Ntp1183
Rp1184
g1182
bsg30
(lp1185
g0
(g22
g2
Ntp1186
Rp1187
(dp1188
g26
g46
sg28
g1181
sg29
g1187
sg30
(lp1189
g0
(g22
g2
Ntp1190
Rp1191
(dp1192
g26
g75
sg28
g1187
sg29
g1191
sg30
Nsg52
g53
sg54
Nsbasg52
g55
sg54
Nsbasg52
g84
sg54
Nsbsg85
F-23929.817992404845
sg86
g87
sg178
Nsg29
g180
sg215
Nsg216
g217
((dp1193
g1094
I512
stp1194
Rp1195
sg242
F-2.3933394562625097
sg243
F1.0
sg244
g245
sg248
Nsg246
g247
sg249
I25
sbsbag0
(g8
g2
Ntp1196
Rp1197
(dp1198
g12
F-23935.70328360604
sg13
g0
(g14
g2
Ntp1199
Rp1200
(dp1201
g18
F-23935.70328360604
sg19
Nsg20
F1.0
sg21
g0
(g22
g2
Ntp1202
Rp1203
(dp1204
g26
g27
sg28
Nsg29
g1203
sg30
(lp1205
g0
(g22
g2
Ntp1206
Rp1207
(dp1208
g26
g35
sg28
g1203
sg29
g1207
sg30
(lp1209
g0
(g22
g2
Ntp1210
Rp1211
(dp1212
g26
g46
sg28
g1207
sg29
g1211
sg30
(lp1213
g0
(g22
g2
Ntp1214
Rp1215
(dp1216
g26
g154
sg28
g1211
sg29
g1215
sg30
Nsg52
g53
sg54
Nsbasg52
g55
sg54
Nsbag0
(g22
g2
Ntp1217
Rp1218
(dp1219
g26
g46
sg28
g1207
sg29
g1218
sg30
(lp1220
g0
(g22
g2
Ntp1221
Rp1222
(dp1223
g26
g83
sg28
g1218
sg29
g0
(g22
g2
Ntp1224
Rp1225
g1223
bsg30
Nsg52
g53
sg54
Nsbasg52
g55
sg54
Nsbasg52
g55
sg54
Nsbasg52
g84
sg54
Nsbsg85
F-23929.817992404845
sg86
g87
sg178
Nsg29
g180
sg215
Nsg216
g217
((dp1226
S'z i'
p1227
I26
sS's i'
p1228
I41
sS'd e'
p1229
I42
sS'r e'
p1230
I40
sS'l i'
p1231
I35
sS'r i'
p1232
I40
sS'l e'
p1233
I45
sS'z e'
p1234
I38
sS's e'
p1235
I37
sS'd i'
p1236
I36
sS't e'
p1237
I34
sS'n i'
p1238
I34
sS'n e'
p1239
I32
sS't i'
p1240
I32
stp1241
Rp1242
sg242
F-5.885291201193128
sg243
F1.0
sg244
g245
sg248
Nsg246
g247
sg249
I25
sbsbag0
(g8
g2
Ntp1243
Rp1244
(dp1245
g12
F-23935.70328360604
sg13
g0
(g14
g2
Ntp1246
Rp1247
(dp1248
g18
F-23935.70328360604
sg19
Nsg20
F1.0
sg21
g0
(g22
g2
Ntp1249
Rp1250
(dp1251
g26
g27
sg28
Nsg29
g0
(g22
g2
Ntp1252
Rp1253
g1251
bsg30
(lp1254
g0
(g22
g2
Ntp1255
Rp1256
(dp1257
g26
g35
sg28
g1250
sg29
g1256
sg30
(lp1258
g0
(g22
g2
Ntp1259
Rp1260
(dp1261
g26
g46
sg28
g1256
sg29
g1260
sg30
(lp1262
g0
(g22
g2
Ntp1263
Rp1264
(dp1265
g26
g83
sg28
g1260
sg29
g1264
sg30
Nsg52
g53
sg54
Nsbasg52
g55
sg54
Nsbag0
(g22
g2
Ntp1266
Rp1267
(dp1268
g26
g46
sg28
g1256
sg29
g1267
sg30
(lp1269
g0
(g22
g2
Ntp1270
Rp1271
(dp1272
g26
g63
sg28
g1267
sg29
g1271
sg30
Nsg52
g53
sg54
Nsbasg52
g55
sg54
Nsbasg52
g55
sg54
Nsbasg52
g84
sg54
Nsbsg85
F-23929.817992404845
sg86
g87
sg178
Nsg29
g180
sg215
Nsg216
g217
((dp1273
S'i j'
p1274
I250
sS'e j'
p1275
I262
stp1276
Rp1277
sg242
F-5.885291201193128
sg243
F1.0
sg244
g245
sg248
Nsg246
g247
sg249
I25
sbsbag0
(g8
g2
Ntp1278
Rp1279
(dp1280
g12
F-23935.70328360604
sg13
g0
(g14
g2
Ntp1281
Rp1282
(dp1283
g18
F-23935.70328360604
sg19
Nsg20
F1.0
sg21
g0
(g22
g2
Ntp1284
Rp1285
(dp1286
g26
g27
sg28
Nsg29
g1285
sg30
(lp1287
g0
(g22
g2
Ntp1288
Rp1289
(dp1290
g26
g35
sg28
g1285
sg29
g1289
sg30
(lp1291
g0
(g22
g2
Ntp1292
Rp1293
(dp1294
g26
g46
sg28
g1289
sg29
g1293
sg30
(lp1295
g0
(g22
g2
Ntp1296
Rp1297
(dp1298
g26
g164
sg28
g1293
sg29
g0
(g22
g2
Ntp1299
Rp1300
g1298
bsg30
Nsg52
g53
sg54
Nsbasg52
g55
sg54
Nsbag0
(g22
g2
Ntp1301
Rp1302
(dp1303
g26
g46
sg28
g1289
sg29
g1302
sg30
(lp1304
g0
(g22
g2
Ntp1305
Rp1306
(dp1307
g26
g63
sg28
g1302
sg29
g1306
sg30
Nsg52
g53
sg54
Nsbasg52
g55
sg54
Nsbasg52
g55
sg54
Nsbasg52
g84
sg54
Nsbsg85
F-23929.817992404845
sg86
g87
sg178
Nsg29
g180
sg215
Nsg216
g217
((dp1308
S'k j'
p1309
I155
sS'g j'
p1310
I179
sS'N j'
p1311
I178
stp1312
Rp1313
sg242
F-5.885291201193128
sg243
F1.0
sg244
g245
sg248
Nsg246
g247
sg249
I25
sbsbag0
(g8
g2
Ntp1314
Rp1315
(dp1316
g12
F-23932.21133186111
sg13
g0
(g14
g2
Ntp1317
Rp1318
(dp1319
g18
F-23932.21133186111
sg19
Nsg20
F1.0
sg21
g0
(g22
g2
Ntp1320
Rp1321
(dp1322
g26
g27
sg28
Nsg29
g1321
sg30
(lp1323
g0
(g22
g2
Ntp1324
Rp1325
(dp1326
g26
g46
sg28
g1321
sg29
g1325
sg30
(lp1327
g0
(g22
g2
Ntp1328
Rp1329
(dp1330
g26
g51
sg28
g1325
sg29
g0
(g22
g2
Ntp1331
Rp1332
g1330
bsg30
Nsg52
g53
sg54
Nsbasg52
g55
sg54
Nsbasg52
g84
sg54
Nsbsg85
F-23929.817992404845
sg86
g87
sg178
Nsg29
g180
sg215
Nsg216
g217
((dp1333
g103
I140
sg102
I112
sg108
I131
sg777
I129
stp1334
Rp1335
sg242
F-2.3933394562625097
sg243
F1.0
sg244
g245
sg248
Nsg246
g247
sg249
I25
sbsbag0
(g8
g2
Ntp1336
Rp1337
(dp1338
g12
F-23935.70328360604
sg13
g0
(g14
g2
Ntp1339
Rp1340
(dp1341
g18
F-23935.70328360604
sg19
Nsg20
F1.0
sg21
g0
(g22
g2
Ntp1342
Rp1343
(dp1344
g26
g27
sg28
Nsg29
g1343
sg30
(lp1345
g0
(g22
g2
Ntp1346
Rp1347
(dp1348
g26
g35
sg28
g1343
sg29
g0
(g22
g2
Ntp1349
Rp1350
g1348
bsg30
(lp1351
g0
(g22
g2
Ntp1352
Rp1353
(dp1354
g26
g46
sg28
g1347
sg29
g1353
sg30
(lp1355
g0
(g22
g2
Ntp1356
Rp1357
(dp1358
g26
g154
sg28
g1353
sg29
g1357
sg30
Nsg52
g53
sg54
Nsbasg52
g55
sg54
Nsbag0
(g22
g2
Ntp1359
Rp1360
(dp1361
g26
g46
sg28
g1347
sg29
g1360
sg30
(lp1362
g0
(g22
g2
Ntp1363
Rp1364
(dp1365
g26
g154
sg28
g1360
sg29
g1364
sg30
Nsg52
g53
sg54
Nsbasg52
g55
sg54
Nsbasg52
g55
sg54
Nsbasg52
g84
sg54
Nsbsg85
F-23929.817992404845
sg86
g87
sg178
Nsg29
g180
sg215
Nsg216
g217
((dp1366
S't d'
p1367
I10
sS't t'
p1368
I10
sS's l'
p1369
I7
sS'z l'
p1370
I8
sS's n'
p1371
I11
sS'z n'
p1372
I5
sS's d'
p1373
I11
sS't z'
p1374
I7
sS'r n'
p1375
I9
sS'r s'
p1376
I14
sS'r r'
p1377
I12
sS'r t'
p1378
I7
sS't n'
p1379
I8
sS's r'
p1380
I9
sS'r z'
p1381
I11
sS's t'
p1382
I5
sS'z t'
p1383
I10
sS't r'
p1384
I9
sS's s'
p1385
I12
sS'r d'
p1386
I12
sS'l r'
p1387
I10
sS'd n'
p1388
I16
sS't s'
p1389
I8
sS'l n'
p1390
I11
sS'd d'
p1391
I12
sS'n z'
p1392
I16
sS'n t'
p1393
I6
sS'd l'
p1394
I12
sS'n s'
p1395
I7
sS'r l'
p1396
I12
sS'n l'
p1397
I8
sS'l d'
p1398
I10
sS'd t'
p1399
I10
sS'd s'
p1400
I9
sS'd r'
p1401
I11
sS'z d'
p1402
I10
sS'n d'
p1403
I19
sS'l t'
p1404
I14
sS'l s'
p1405
I17
sS'd z'
p1406
I3
sS'z s'
p1407
I12
sS'l l'
p1408
I14
sS's z'
p1409
I10
sS't l'
p1410
I15
sS'n n'
p1411
I7
sS'n r'
p1412
I15
sS'z z'
p1413
I9
sS'z r'
p1414
I16
sS'l z'
p1415
I6
stp1416
Rp1417
sg242
F-5.885291201193128
sg243
F1.0
sg244
g245
sg248
Nsg246
g247
sg249
I25
sbsbag0
(g8
g2
Ntp1418
Rp1419
(dp1420
g12
F-23932.21133186111
sg13
g0
(g14
g2
Ntp1421
Rp1422
(dp1423
g18
F-23932.21133186111
sg19
Nsg20
F1.0
sg21
g0
(g22
g2
Ntp1424
Rp1425
(dp1426
g26
g27
sg28
Nsg29
g0
(g22
g2
Ntp1427
Rp1428
g1426
bsg30
(lp1429
g0
(g22
g2
Ntp1430
Rp1431
(dp1432
g26
g46
sg28
g1425
sg29
g1431
sg30
(lp1433
g0
(g22
g2
Ntp1434
Rp1435
(dp1436
g26
g63
sg28
g1431
sg29
g1435
sg30
Nsg52
g53
sg54
Nsbasg52
g55
sg54
Nsbasg52
g84
sg54
Nsbsg85
F-23929.817992404845
sg86
g87
sg178
Nsg29
g180
sg215
Nsg216
g217
((dp1437
S'j'
p1438
I512
stp1439
Rp1440
sg242
F-2.3933394562625097
sg243
F1.0
sg244
g245
sg248
Nsg246
g247
sg249
I25
sbsbag0
(g8
g2
Ntp1441
Rp1442
(dp1443
g12
F-23935.70328360604
sg13
g0
(g14
g2
Ntp1444
Rp1445
(dp1446
g18
F-23935.70328360604
sg19
Nsg20
F1.0
sg21
g0
(g22
g2
Ntp1447
Rp1448
(dp1449
g26
g27
sg28
Nsg29
g1448
sg30
(lp1450
g0
(g22
g2
Ntp1451
Rp1452
(dp1453
g26
g35
sg28
g1448
sg29
g1452
sg30
(lp1454
g0
(g22
g2
Ntp1455
Rp1456
(dp1457
g26
g46
sg28
g1452
sg29
g1456
sg30
(lp1458
g0
(g22
g2
Ntp1459
Rp1460
(dp1461
g26
g51
sg28
g1456
sg29
g1460
sg30
Nsg52
g53
sg54
Nsbasg52
g55
sg54
Nsbag0
(g22
g2
Ntp1462
Rp1463
(dp1464
g26
g46
sg28
g1452
sg29
g0
(g22
g2
Ntp1465
Rp1466
g1464
bsg30
(lp1467
g0
(g22
g2
Ntp1468
Rp1469
(dp1470
g26
g150
sg28
g1463
sg29
g1469
sg30
Nsg52
g53
sg54
Nsbasg52
g55
sg54
Nsbasg52
g55
sg54
Nsbasg52
g84
sg54
Nsbsg85
F-23929.817992404845
sg86
g87
sg178
Nsg29
g180
sg215
Nsg216
g217
((dp1471
S'm v'
p1472
I23
sS'm t'
p1473
I31
sS'b z'
p1474
I17
sS'm s'
p1475
I20
sS'm z'
p1476
I21
sS'm f'
p1477
I15
sS'm h'
p1478
I15
sS'b t'
p1479
I17
sS'p s'
p1480
I22
sS'b s'
p1481
I19
sS'w h'
p1482
I23
sS'p v'
p1483
I25
sS'p t'
p1484
I23
sS'p z'
p1485
I21
sS'w f'
p1486
I15
sS'b v'
p1487
I23
sS'p f'
p1488
I23
sS'w z'
p1489
I20
sS'b f'
p1490
I18
sS'w t'
p1491
I22
sS'b h'
p1492
I19
sS'w v'
p1493
I32
sS'p h'
p1494
I19
sS'w s'
p1495
I29
stp1496
Rp1497
sg242
F-5.885291201193128
sg243
F1.0
sg244
g245
sg248
Nsg246
g247
sg249
I25
sbsbag0
(g8
g2
Ntp1498
Rp1499
(dp1500
g12
F-23932.21133186111
sg13
g0
(g14
g2
Ntp1501
Rp1502
(dp1503
g18
F-23932.21133186111
sg19
Nsg20
F1.0
sg21
g0
(g22
g2
Ntp1504
Rp1505
(dp1506
g26
g27
sg28
Nsg29
g1505
sg30
(lp1507
g0
(g22
g2
Ntp1508
Rp1509
(dp1510
g26
g46
sg28
g1505
sg29
g1509
sg30
(lp1511
g0
(g22
g2
Ntp1512
Rp1513
(dp1514
g26
g83
sg28
g1509
sg29
g0
(g22
g2
Ntp1515
Rp1516
g1514
bsg30
Nsg52
g53
sg54
Nsbasg52
g55
sg54
Nsbasg52
g84
sg54
Nsbsg85
F-23929.817992404845
sg86
g87
sg178
Nsg29
g180
sg215
Nsg216
g217
((dp1517
g115
I248
sS'e'
p1518
I264
stp1519
Rp1520
sg242
F-2.3933394562625097
sg243
F1.0
sg244
g245
sg248
Nsg246
g247
sg249
I25
sbsbag0
(g8
g2
Ntp1521
Rp1522
(dp1523
g12
F-23935.70328360604
sg13
g0
(g14
g2
Ntp1524
Rp1525
(dp1526
g18
F-23935.70328360604
sg19
Nsg20
F1.0
sg21
g0
(g22
g2
Ntp1527
Rp1528
(dp1529
g26
g27
sg28
Nsg29
g1528
sg30
(lp1530
g0
(g22
g2
Ntp1531
Rp1532
(dp1533
g26
g35
sg28
g1528
sg29
g1532
sg30
(lp1534
g0
(g22
g2
Ntp1535
Rp1536
(dp1537
g26
g46
sg28
g1532
sg29
g1536
sg30
(lp1538
g0
(g22
g2
Ntp1539
Rp1540
(dp1541
g26
g83
sg28
g1536
sg29
g0
(g22
g2
Ntp1542
Rp1543
g1541
bsg30
Nsg52
g53
sg54
Nsbasg52
g55
sg54
Nsbag0
(g22
g2
Ntp1544
Rp1545
(dp1546
g26
g46
sg28
g1532
sg29
g1545
sg30
(lp1547
g0
(g22
g2
Ntp1548
Rp1549
(dp1550
g26
g150
sg28
g1545
sg29
g1549
sg30
Nsg52
g53
sg54
Nsbasg52
g55
sg54
Nsbasg52
g55
sg54
Nsbasg52
g84
sg54
Nsbsg85
F-23929.817992404845
sg86
g87
sg178
Nsg29
g180
sg215
Nsg216
g217
((dp1551
S'i s'
p1552
I36
sS'i h'
p1553
I39
sS'i v'
p1554
I37
sS'i t'
p1555
I39
sS'e h'
p1556
I64
sS'i z'
p1557
I35
sS'e f'
p1558
I40
sS'i f'
p1559
I37
sS'e v'
p1560
I43
sS'e z'
p1561
I51
sS'e t'
p1562
I47
sS'e s'
p1563
I44
stp1564
Rp1565
sg242
F-5.885291201193128
sg243
F1.0
sg244
g245
sg248
Nsg246
g247
sg249
I25
sbsbag0
(g8
g2
Ntp1566
Rp1567
(dp1568
g12
F-23935.70328360604
sg13
g0
(g14
g2
Ntp1569
Rp1570
(dp1571
g18
F-23935.70328360604
sg19
Nsg20
F1.0
sg21
g0
(g22
g2
Ntp1572
Rp1573
(dp1574
g26
g27
sg28
Nsg29
g1573
sg30
(lp1575
g0
(g22
g2
Ntp1576
Rp1577
(dp1578
g26
g35
sg28
g1573
sg29
g0
(g22
g2
Ntp1579
Rp1580
g1578
bsg30
(lp1581
g0
(g22
g2
Ntp1582
Rp1583
(dp1584
g26
g46
sg28
g1577
sg29
g1583
sg30
(lp1585
g0
(g22
g2
Ntp1586
Rp1587
(dp1588
g26
g75
sg28
g1583
sg29
g1587
sg30
Nsg52
g53
sg54
Nsbasg52
g55
sg54
Nsbag0
(g22
g2
Ntp1589
Rp1590
(dp1591
g26
g46
sg28
g1577
sg29
g1590
sg30
(lp1592
g0
(g22
g2
Ntp1593
Rp1594
(dp1595
g26
g83
sg28
g1590
sg29
g1594
sg30
Nsg52
g53
sg54
Nsbasg52
g55
sg54
Nsbasg52
g55
sg54
Nsbasg52
g84
sg54
Nsbsg85
F-23929.817992404845
sg86
g87
sg178
Nsg29
g180
sg215
Nsg216
g217
((dp1596
S'h i'
p1597
I246
sS'h e'
p1598
I266
stp1599
Rp1600
sg242
F-5.885291201193128
sg243
F1.0
sg244
g245
sg248
Nsg246
g247
sg249
I25
sbsbag0
(g8
g2
Ntp1601
Rp1602
(dp1603
g12
F-23939.19523535097
sg13
g0
(g14
g2
Ntp1604
Rp1605
(dp1606
g18
F-23939.19523535097
sg19
Nsg20
F1.0
sg21
g0
(g22
g2
Ntp1607
Rp1608
(dp1609
g26
g27
sg28
Nsg29
g1608
sg30
(lp1610
g0
(g22
g2
Ntp1611
Rp1612
(dp1613
g26
g35
sg28
g1608
sg29
g1612
sg30
(lp1614
g0
(g22
g2
Ntp1615
Rp1616
(dp1617
g26
g35
sg28
g1612
sg29
g0
(g22
g2
Ntp1618
Rp1619
g1617
bsg30
(lp1620
g0
(g22
g2
Ntp1621
Rp1622
(dp1623
g26
g46
sg28
g1616
sg29
g1622
sg30
(lp1624
g0
(g22
g2
Ntp1625
Rp1626
(dp1627
g26
g75
sg28
g1622
sg29
g1626
sg30
Nsg52
g53
sg54
Nsbasg52
g55
sg54
Nsbag0
(g22
g2
Ntp1628
Rp1629
(dp1630
g26
g46
sg28
g1616
sg29
g1629
sg30
(lp1631
g0
(g22
g2
Ntp1632
Rp1633
(dp1634
g26
g154
sg28
g1629
sg29
g1633
sg30
Nsg52
g53
sg54
Nsbasg52
g55
sg54
Nsbasg52
g55
sg54
Nsbag0
(g22
g2
Ntp1635
Rp1636
(dp1637
g26
g46
sg28
g1612
sg29
g1636
sg30
(lp1638
g0
(g22
g2
Ntp1639
Rp1640
(dp1641
g26
g63
sg28
g1636
sg29
g1640
sg30
Nsg52
g53
sg54
Nsbasg52
g55
sg54
Nsbasg52
g55
sg54
Nsbasg52
g84
sg54
Nsbsg85
F-23929.817992404845
sg86
g87
sg178
Nsg29
g180
sg215
Nsg216
g217
((dp1642
S'h d j'
p1643
I62
sS'h r j'
p1644
I69
sS'h t j'
p1645
I83
sS'h n j'
p1646
I73
sS'h l j'
p1647
I74
sS'h s j'
p1648
I80
sS'h z j'
p1649
I71
stp1650
Rp1651
sg242
F-9.377242946123747
sg243
F1.0
sg244
g245
sg248
Nsg246
g247
sg249
I25
sbsbag0
(g8
g2
Ntp1652
Rp1653
(dp1654
g12
F-23932.21133186111
sg13
g0
(g14
g2
Ntp1655
Rp1656
(dp1657
g18
F-23932.21133186111
sg19
Nsg20
F1.0
sg21
g0
(g22
g2
Ntp1658
Rp1659
(dp1660
g26
g27
sg28
Nsg29
g0
(g22
g2
Ntp1661
Rp1662
g1660
bsg30
(lp1663
g0
(g22
g2
Ntp1664
Rp1665
(dp1666
g26
g46
sg28
g1659
sg29
g1665
sg30
(lp1667
g0
(g22
g2
Ntp1668
Rp1669
(dp1670
g26
g154
sg28
g1665
sg29
g1669
sg30
Nsg52
g53
sg54
Nsbasg52
g55
sg54
Nsbasg52
g84
sg54
Nsbsg85
F-23929.817992404845
sg86
g87
sg178
Nsg29
g180
sg215
Nsg216
g217
((dp1671
g1091
I69
sS'r'
p1672
I73
sS'd'
p1673
I62
sg1093
I88
sg1092
I71
sS'l'
p1674
I72
sS'n'
p1675
I77
stp1676
Rp1677
sg242
F-2.3933394562625097
sg243
F1.0
sg244
g245
sg248
Nsg246
g247
sg249
I25
sbsbag0
(g8
g2
Ntp1678
Rp1679
(dp1680
g12
F-23499.750319883722
sg13
g0
(g14
g2
Ntp1681
Rp1682
(dp1683
g18
F-23499.750319883722
sg19
Nsg20
F1.0
sg21
g0
(g22
g2
Ntp1684
Rp1685
(dp1686
g26
g27
sg28
Nsg29
g0
(g22
g2
Ntp1687
Rp1688
g1686
bsg30
(lp1689
g0
(g22
g2
Ntp1690
Rp1691
(dp1692
g26
g35
sg28
g1685
sg29
g1691
sg30
(lp1693
g0
(g22
g2
Ntp1694
Rp1695
(dp1696
g26
g46
sg28
g1691
sg29
g1695
sg30
(lp1697
g0
(g22
g2
Ntp1698
Rp1699
(dp1700
g26
g51
sg28
g1695
sg29
g1699
sg30
Nsg52
g53
sg54
Nsbasg52
g55
sg54
Nsbag0
(g22
g2
Ntp1701
Rp1702
(dp1703
g26
g35
sg28
g1691
sg29
g1702
sg30
(lp1704
g0
(g22
g2
Ntp1705
Rp1706
(dp1707
g26
g46
sg28
g1702
sg29
g1706
sg30
(lp1708
g0
(g22
g2
Ntp1709
Rp1710
(dp1711
g26
g83
sg28
g1706
sg29
g1710
sg30
Nsg52
g53
sg54
Nsbasg52
g55
sg54
Nsbag0
(g22
g2
Ntp1712
Rp1713
(dp1714
g26
g46
sg28
g1702
sg29
g1713
sg30
(lp1715
g0
(g22
g2
Ntp1716
Rp1717
(dp1718
g26
g154
sg28
g1713
sg29
g1717
sg30
Nsg52
g53
sg54
Nsbasg52
g55
sg54
Nsbasg52
g55
sg54
Nsbasg52
g55
sg54
Nsbasg52
g84
sg54
Nsbsg85
F-23490.373076937598
sg86
g87
sg178
Nsg29
g180
sg215
Nsg216
g217
((dp1719
S'w i s'
p1720
I7
sS'm e t'
p1721
I10
sS'b i t'
p1722
I8
sS'm i r'
p1723
I8
sS'b i r'
p1724
I10
sS'b i s'
p1725
I9
sS'm e s'
p1726
I8
sS'm e r'
p1727
I10
sS'w i z'
p1728
I7
sS'b i z'
p1729
I5
sS'm e z'
p1730
I10
sS'm e d'
p1731
I11
sS'b i d'
p1732
I7
sS'w i d'
p1733
I8
sS'b i n'
p1734
I6
sS'm e l'
p1735
I11
sS'b i l'
p1736
I14
sS'm e n'
p1737
I8
sS'w i n'
p1738
I10
sS'w i l'
p1739
I10
sS'b e n'
p1740
I14
sS'b e l'
p1741
I8
sS'w i t'
p1742
I9
sS'b e d'
p1743
I6
sS'b e z'
p1744
I8
sS'w e r'
p1745
I13
sS'b e r'
p1746
I11
sS'b e s'
p1747
I12
sS'p e r'
p1748
I4
sS'b e t'
p1749
I10
sS'p i d'
p1750
I12
sS'p e z'
p1751
I10
sS'p i l'
p1752
I7
sS'p i n'
p1753
I9
sS'p e s'
p1754
I15
sS'p e t'
p1755
I8
sS'p i t'
p1756
I16
sS'w i r'
p1757
I8
sS'p e n'
p1758
I7
sS'p i s'
p1759
I8
sS'p e d'
p1760
I11
sS'p i z'
p1761
I7
sS'm i z'
p1762
I10
sS'p i r'
p1763
I9
sS'w e z'
p1764
I7
sS'm i s'
p1765
I9
sS'w e t'
p1766
I8
sS'w e s'
p1767
I10
sS'm i t'
p1768
I7
sS'w e n'
p1769
I11
sS'w e l'
p1770
I7
sS'm i l'
p1771
I6
sS'm i n'
p1772
I7
sS'p e l'
p1773
I12
sS'w e d'
p1774
I13
sS'm i d'
p1775
I6
stp1776
Rp1777
sg242
F-9.377242946123747
sg243
F1.0
sg244
g245
sg248
Nsg246
g247
sg249
I25
sbsbag0
(g8
g2
Ntp1778
Rp1779
(dp1780
g12
F-23375.359768417595
sg13
g0
(g14
g2
Ntp1781
Rp1782
(dp1783
g18
F-23375.359768417595
sg19
Nsg20
F1.0
sg21
g0
(g22
g2
Ntp1784
Rp1785
(dp1786
g26
g27
sg28
Nsg29
g1785
sg30
(lp1787
g0
(g22
g2
Ntp1788
Rp1789
(dp1790
g26
g35
sg28
g1785
sg29
g1789
sg30
(lp1791
g0
(g22
g2
Ntp1792
Rp1793
(dp1794
g26
g46
sg28
g1789
sg29
g1793
sg30
(lp1795
g0
(g22
g2
Ntp1796
Rp1797
(dp1798
g26
g75
sg28
g1793
sg29
g0
(g22
g2
Ntp1799
Rp1800
g1798
bsg30
Nsg52
g53
sg54
Nsbasg52
g55
sg54
Nsbag0
(g22
g2
Ntp1801
Rp1802
(dp1803
g26
g35
sg28
g1789
sg29
g1802
sg30
(lp1804
g0
(g22
g2
Ntp1805
Rp1806
(dp1807
g26
g46
sg28
g1802
sg29
g1806
sg30
(lp1808
g0
(g22
g2
Ntp1809
Rp1810
(dp1811
g26
g83
sg28
g1806
sg29
g1810
sg30
Nsg52
g53
sg54
Nsbasg52
g55
sg54
Nsbag0
(g22
g2
Ntp1812
Rp1813
(dp1814
g26
g46
sg28
g1802
sg29
g1813
sg30
(lp1815
g0
(g22
g2
Ntp1816
Rp1817
(dp1818
g26
g154
sg28
g1813
sg29
g1817
sg30
Nsg52
g53
sg54
Nsbasg52
g55
sg54
Nsbasg52
g55
sg54
Nsbasg52
g55
sg54
Nsbasg52
g84
sg54
Nsbsg85
F-23365.98252547147
sg86
g87
sg178
Nsg29
g180
sg215
Nsg216
g217
((dp1819
S'h i l'
p1820
I34
sS'h e r'
p1821
I42
sS'h e s'
p1822
I34
sS'h e t'
p1823
I36
sS'h i d'
p1824
I37
sS'h e z'
p1825
I39
sS'h i n'
p1826
I37
sS'h e d'
p1827
I47
sS'h e n'
p1828
I28
sS'h i z'
p1829
I42
sS'h i t'
p1830
I39
sS'h e l'
p1831
I31
sS'h i r'
p1832
I35
sS'h i s'
p1833
I31
stp1834
Rp1835
sg242
F-9.377242946123747
sg243
F1.0
sg244
g245
sg248
Nsg246
g247
sg249
I25
sbsbag0
(g8
g2
Ntp1836
Rp1837
(dp1838
g12
F-22745.394871358425
sg13
g0
(g14
g2
Ntp1839
Rp1840
(dp1841
g18
F-22745.394871358425
sg19
Nsg20
F1.0
sg21
g0
(g22
g2
Ntp1842
Rp1843
(dp1844
g26
g27
sg28
Nsg29
g1843
sg30
(lp1845
g0
(g22
g2
Ntp1846
Rp1847
(dp1848
g26
g35
sg28
g1843
sg29
g1847
sg30
(lp1849
g0
(g22
g2
Ntp1850
Rp1851
(dp1852
g26
g46
sg28
g1847
sg29
g1851
sg30
(lp1853
g0
(g22
g2
Ntp1854
Rp1855
(dp1856
g26
g150
sg28
g1851
sg29
g0
(g22
g2
Ntp1857
Rp1858
g1856
bsg30
Nsg52
g53
sg54
Nsbasg52
g55
sg54
Nsbag0
(g22
g2
Ntp1859
Rp1860
(dp1861
g26
g35
sg28
g1847
sg29
g1860
sg30
(lp1862
g0
(g22
g2
Ntp1863
Rp1864
(dp1865
g26
g46
sg28
g1860
sg29
g1864
sg30
(lp1866
g0
(g22
g2
Ntp1867
Rp1868
(dp1869
g26
g83
sg28
g1864
sg29
g1868
sg30
Nsg52
g53
sg54
Nsbasg52
g55
sg54
Nsbag0
(g22
g2
Ntp1870
Rp1871
(dp1872
g26
g46
sg28
g1860
sg29
g1871
sg30
(lp1873
g0
(g22
g2
Ntp1874
Rp1875
(dp1876
g26
g154
sg28
g1871
sg29
g1875
sg30
Nsg52
g53
sg54
Nsbasg52
g55
sg54
Nsbasg52
g55
sg54
Nsbasg52
g55
sg54
Nsbasg52
g84
sg54
Nsbsg85
F-22736.0176284123
sg86
g87
sg178
Nsg29
g180
sg215
Nsg216
g217
((dp1877
S'h e r'
p1878
I5
sS'h e s'
p1879
I5
sS's i s'
p1880
I4
sS's i r'
p1881
I7
sS'z i t'
p1882
I4
sS'z i r'
p1883
I4
sS's i z'
p1884
I6
sS'z i n'
p1885
I10
sS'z i l'
p1886
I7
sS's i t'
p1887
I7
sS'h e d'
p1888
I6
sS'z i z'
p1889
I5
sS'z i d'
p1890
I6
sS's i l'
p1891
I3
sS'h e l'
p1892
I14
sS'h e n'
p1893
I4
sS'h i l'
p1894
I7
sS'h i n'
p1895
I9
sS'h i d'
p1896
I8
sS'f i d'
p1897
I4
sS'h i z'
p1898
I6
sS'h i t'
p1899
I4
sS'h e z'
p1900
I3
sS'h i r'
p1901
I6
sS'h i s'
p1902
I6
sS'f i r'
p1903
I7
sS'f i s'
p1904
I3
sS'z e d'
p1905
I3
sS'f i z'
p1906
I4
sS'z e n'
p1907
I4
sS'z e l'
p1908
I8
sS'z i s'
p1909
I4
sS'z e r'
p1910
I7
sS'z e s'
p1911
I8
sS'z e t'
p1912
I4
sS'z e z'
p1913
I8
sS'f i n'
p1914
I8
sS'f i l'
p1915
I7
sS'f e n'
p1916
I4
sS's e z'
p1917
I6
sS'f e l'
p1918
I4
sS'v i d'
p1919
I10
sS's e s'
p1920
I7
sS's e r'
p1921
I6
sS'f e d'
p1922
I11
sS'v i n'
p1923
I7
sS'v i l'
p1924
I10
sS's e t'
p1925
I8
sS'v i r'
p1926
I9
sS'v i s'
p1927
I4
sS's i d'
p1928
I3
sS'f e z'
p1929
I6
sS's e n'
p1930
I3
sS'v i t'
p1931
I6
sS's e l'
p1932
I6
sS'v i z'
p1933
I4
sS'f e t'
p1934
I2
sS'f e r'
p1935
I5
sS'f e s'
p1936
I9
sS's e d'
p1937
I5
sS't i d'
p1938
I9
sS't i l'
p1939
I7
sS't i n'
p1940
I5
sS't i r'
p1941
I8
sS't i s'
p1942
I7
sS't i t'
p1943
I10
sS's i n'
p1944
I5
sS't i z'
p1945
I7
sS'h e t'
p1946
I4
sS'v e z'
p1947
I7
sS'f i t'
p1948
I5
sS'v e t'
p1949
I11
sS'v e r'
p1950
I8
sS'v e s'
p1951
I5
sS'v e n'
p1952
I6
sS'v e l'
p1953
I6
sS'v e d'
p1954
I7
sS't e z'
p1955
I2
sS't e t'
p1956
I8
sS't e r'
p1957
I4
sS't e s'
p1958
I6
sS't e l'
p1959
I5
sS't e n'
p1960
I4
sS't e d'
p1961
I6
stp1962
Rp1963
sg242
F-9.377242946123747
sg243
F1.0
sg244
g245
sg248
Nsg246
g247
sg249
I25
sbsbag0
(g8
g2
Ntp1964
Rp1965
(dp1966
g12
F-22441.765957665273
sg13
g0
(g14
g2
Ntp1967
Rp1968
(dp1969
g18
F-22441.765957665273
sg19
Nsg20
F1.0
sg21
g0
(g22
g2
Ntp1970
Rp1971
(dp1972
g26
g27
sg28
Nsg29
g1971
sg30
(lp1973
g0
(g22
g2
Ntp1974
Rp1975
(dp1976
g26
g35
sg28
g1971
sg29
g1975
sg30
(lp1977
g0
(g22
g2
Ntp1978
Rp1979
(dp1980
g26
g46
sg28
g1975
sg29
g1979
sg30
(lp1981
g0
(g22
g2
Ntp1982
Rp1983
(dp1984
g26
g164
sg28
g1979
sg29
g0
(g22
g2
Ntp1985
Rp1986
g1984
bsg30
Nsg52
g53
sg54
Nsbasg52
g55
sg54
Nsbag0
(g22
g2
Ntp1987
Rp1988
(dp1989
g26
g35
sg28
g1975
sg29
g1988
sg30
(lp1990
g0
(g22
g2
Ntp1991
Rp1992
(dp1993
g26
g46
sg28
g1988
sg29
g1992
sg30
(lp1994
g0
(g22
g2
Ntp1995
Rp1996
(dp1997
g26
g83
sg28
g1992
sg29
g1996
sg30
Nsg52
g53
sg54
Nsbasg52
g55
sg54
Nsbag0
(g22
g2
Ntp1998
Rp1999
(dp2000
g26
g46
sg28
g1988
sg29
g1999
sg30
(lp2001
g0
(g22
g2
Ntp2002
Rp2003
(dp2004
g26
g154
sg28
g1999
sg29
g2003
sg30
Nsg52
g53
sg54
Nsbasg52
g55
sg54
Nsbasg52
g55
sg54
Nsbasg52
g55
sg54
Nsbasg52
g84
sg54
Nsbsg85
F-22432.38871471915
sg86
g87
sg178
Nsg29
g180
sg215
Nsg216
g217
((dp2005
S'k i z'
p2006
I7
sS'g i d'
p2007
I10
sS'k i t'
p2008
I8
sS'k i s'
p2009
I15
sS'k i r'
p2010
I17
sS'g i l'
p2011
I9
sS'g i s'
p2012
I10
sS'g i r'
p2013
I13
sS'k i l'
p2014
I9
sS'g i t'
p2015
I11
sS'g i z'
p2016
I9
sS'k i d'
p2017
I10
sS'k e s'
p2018
I17
sS'k e r'
p2019
I11
sS'k e t'
p2020
I10
sS'k e z'
p2021
I13
sS'k e d'
p2022
I10
sS'k e n'
p2023
I13
sS'k e l'
p2024
I19
sS'N e t'
p2025
I13
sS'N e r'
p2026
I13
sS'N e s'
p2027
I10
sS'N e z'
p2028
I10
sS'g i n'
p2029
I16
sS'N e d'
p2030
I13
sS'N e n'
p2031
I9
sS'N e l'
p2032
I9
sS'g e n'
p2033
I12
sS'g e l'
p2034
I14
sS'N i n'
p2035
I14
sS'N i l'
p2036
I15
sS'k i n'
p2037
I11
sS'g e d'
p2038
I12
sS'N i d'
p2039
I18
sS'N i z'
p2040
I12
sS'g e z'
p2041
I14
sS'N i r'
p2042
I10
sS'N i s'
p2043
I10
sS'g e t'
p2044
I9
sS'g e s'
p2045
I20
sS'g e r'
p2046
I12
sS'N i t'
p2047
I15
stp2048
Rp2049
sg242
F-9.377242946123747
sg243
F1.0
sg244
g245
sg248
Nsg246
g247
sg249
I25
sbsbag0
(g8
g2
Ntp2050
Rp2051
(dp2052
g12
F-22203.603679903226
sg13
g0
(g14
g2
Ntp2053
Rp2054
(dp2055
g18
F-22203.603679903226
sg19
Nsg20
F1.0
sg21
g0
(g22
g2
Ntp2056
Rp2057
(dp2058
g26
g27
sg28
Nsg29
g2057
sg30
(lp2059
g0
(g22
g2
Ntp2060
Rp2061
(dp2062
g26
g35
sg28
g2057
sg29
g2061
sg30
(lp2063
g0
(g22
g2
Ntp2064
Rp2065
(dp2066
g26
g46
sg28
g2061
sg29
g2065
sg30
(lp2067
g0
(g22
g2
Ntp2068
Rp2069
(dp2070
g26
g164
sg28
g2065
sg29
g2069
sg30
Nsg52
g53
sg54
Nsbasg52
g55
sg54
Nsbag0
(g22
g2
Ntp2071
Rp2072
(dp2073
g26
g35
sg28
g2061
sg29
g2072
sg30
(lp2074
g0
(g22
g2
Ntp2075
Rp2076
(dp2077
g26
g46
sg28
g2072
sg29
g2076
sg30
(lp2078
g0
(g22
g2
Ntp2079
Rp2080
(dp2081
g26
g83
sg28
g2076
sg29
g2080
sg30
Nsg52
g53
sg54
Nsbasg52
g55
sg54
Nsbag0
(g22
g2
Ntp2082
Rp2083
(dp2084
g26
g46
sg28
g2072
sg29
g2083
sg30
(lp2085
g0
(g22
g2
Ntp2086
Rp2087
(dp2088
g26
g164
sg28
g2083
sg29
g0
(g22
g2
Ntp2089
Rp2090
g2088
bsg30
Nsg52
g53
sg54
Nsbasg52
g55
sg54
Nsbasg52
g55
sg54
Nsbasg52
g55
sg54
Nsbasg52
g84
sg54
Nsbsg85
F-22194.226436957102
sg86
g87
sg178
Nsg29
g180
sg215
Nsg216
g217
((dp2091
S'g e N'
p2092
I40
sS'N i N'
p2093
I24
sS'g i k'
p2094
I22
sS'N i g'
p2095
I33
sS'N e g'
p2096
I25
sS'k i k'
p2097
I32
sS'k i g'
p2098
I28
sS'g i g'
p2099
I34
sS'k e k'
p2100
I31
sS'N e k'
p2101
I22
sS'N i k'
p2102
I25
sS'g e k'
p2103
I20
sS'g e g'
p2104
I20
sS'g i N'
p2105
I29
sS'k e N'
p2106
I29
sS'k i N'
p2107
I29
sS'k e g'
p2108
I38
sS'N e N'
p2109
I31
stp2110
Rp2111
sg242
F-9.377242946123747
sg243
F1.0
sg244
g245
sg248
Nsg246
g247
sg249
I25
sbsbag0
(g8
g2
Ntp2112
Rp2113
(dp2114
g12
F-21908.975810827553
sg13
g0
(g14
g2
Ntp2115
Rp2116
(dp2117
g18
F-21908.975810827553
sg19
Nsg20
F1.0
sg21
g0
(g22
g2
Ntp2118
Rp2119
(dp2120
g26
g27
sg28
Nsg29
g2119
sg30
(lp2121
g0
(g22
g2
Ntp2122
Rp2123
(dp2124
g26
g35
sg28
g2119
sg29
g2123
sg30
(lp2125
g0
(g22
g2
Ntp2126
Rp2127
(dp2128
g26
g46
sg28
g2123
sg29
g2127
sg30
(lp2129
g0
(g22
g2
Ntp2130
Rp2131
(dp2132
g26
g75
sg28
g2127
sg29
g0
(g22
g2
Ntp2133
Rp2134
g2132
bsg30
Nsg52
g53
sg54
Nsbasg52
g55
sg54
Nsbag0
(g22
g2
Ntp2135
Rp2136
(dp2137
g26
g35
sg28
g2123
sg29
g2136
sg30
(lp2138
g0
(g22
g2
Ntp2139
Rp2140
(dp2141
g26
g46
sg28
g2136
sg29
g2140
sg30
(lp2142
g0
(g22
g2
Ntp2143
Rp2144
(dp2145
g26
g83
sg28
g2140
sg29
g2144
sg30
Nsg52
g53
sg54
Nsbasg52
g55
sg54
Nsbag0
(g22
g2
Ntp2146
Rp2147
(dp2148
g26
g46
sg28
g2136
sg29
g2147
sg30
(lp2149
g0
(g22
g2
Ntp2150
Rp2151
(dp2152
g26
g164
sg28
g2147
sg29
g2151
sg30
Nsg52
g53
sg54
Nsbasg52
g55
sg54
Nsbasg52
g55
sg54
Nsbasg52
g55
sg54
Nsbasg52
g84
sg54
Nsbsg85
F-21899.59856788143
sg86
g87
sg178
Nsg29
g180
sg215
Nsg216
g217
((dp2153
S'h i N'
p2154
I97
sS'h e k'
p2155
I81
sS'h i k'
p2156
I78
sS'h e g'
p2157
I95
sS'h i g'
p2158
I76
sS'h e N'
p2159
I85
stp2160
Rp2161
sg242
F-9.377242946123747
sg243
F1.0
sg244
g245
sg248
Nsg246
g247
sg249
I25
sbsbag0
(g8
g2
Ntp2162
Rp2163
(dp2164
g12
F-20970.422013691325
sg13
g0
(g14
g2
Ntp2165
Rp2166
(dp2167
g18
F-20970.422013691325
sg19
Nsg20
F1.0
sg21
g0
(g22
g2
Ntp2168
Rp2169
(dp2170
g26
g27
sg28
Nsg29
g2169
sg30
(lp2171
g0
(g22
g2
Ntp2172
Rp2173
(dp2174
g26
g35
sg28
g2169
sg29
g2173
sg30
(lp2175
g0
(g22
g2
Ntp2176
Rp2177
(dp2178
g26
g46
sg28
g2173
sg29
g2177
sg30
(lp2179
g0
(g22
g2
Ntp2180
Rp2181
(dp2182
g26
g150
sg28
g2177
sg29
g0
(g22
g2
Ntp2183
Rp2184
g2182
bsg30
Nsg52
g53
sg54
Nsbasg52
g55
sg54
Nsbag0
(g22
g2
Ntp2185
Rp2186
(dp2187
g26
g35
sg28
g2173
sg29
g2186
sg30
(lp2188
g0
(g22
g2
Ntp2189
Rp2190
(dp2191
g26
g46
sg28
g2186
sg29
g2190
sg30
(lp2192
g0
(g22
g2
Ntp2193
Rp2194
(dp2195
g26
g83
sg28
g2190
sg29
g2194
sg30
Nsg52
g53
sg54
Nsbasg52
g55
sg54
Nsbag0
(g22
g2
Ntp2196
Rp2197
(dp2198
g26
g46
sg28
g2186
sg29
g2197
sg30
(lp2199
g0
(g22
g2
Ntp2200
Rp2201
(dp2202
g26
g164
sg28
g2197
sg29
g2201
sg30
Nsg52
g53
sg54
Nsbasg52
g55
sg54
Nsbasg52
g55
sg54
Nsbasg52
g55
sg54
Nsbasg52
g84
sg54
Nsbsg85
F-20961.0447707452
sg86
g87
sg178
Nsg29
g180
sg215
Nsg216
g217
((dp2203
S'h i N'
p2204
I17
sS't i g'
p2205
I17
sS't i k'
p2206
I21
sS's i g'
p2207
I15
sS'z i k'
p2208
I7
sS'h e g'
p2209
I12
sS'z i g'
p2210
I14
sS'h e k'
p2211
I6
sS's i k'
p2212
I12
sS'h i k'
p2213
I12
sS'h i g'
p2214
I19
sS't i N'
p2215
I13
sS'z i N'
p2216
I18
sS'v e k'
p2217
I17
sS'v e g'
p2218
I16
sS'h e N'
p2219
I14
sS'f e N'
p2220
I28
sS'z e g'
p2221
I7
sS'z e k'
p2222
I11
sS'v i N'
p2223
I13
sS's e N'
p2224
I16
sS's i N'
p2225
I9
sS'f i k'
p2226
I16
sS't e g'
p2227
I13
sS'f e k'
p2228
I22
sS'v e N'
p2229
I16
sS's e g'
p2230
I11
sS'v i g'
p2231
I11
sS't e k'
p2232
I19
sS'v i k'
p2233
I10
sS'z e N'
p2234
I9
sS's e k'
p2235
I18
sS't e N'
p2236
I15
sS'f e g'
p2237
I12
sS'f i N'
p2238
I11
sS'f i g'
p2239
I15
stp2240
Rp2241
sg242
F-9.377242946123747
sg243
F1.0
sg244
g245
sg248
Nsg246
g247
sg249
I25
sbsbag0
(g8
g2
Ntp2242
Rp2243
(dp2244
g12
F-20826.713499056656
sg13
g0
(g14
g2
Ntp2245
Rp2246
(dp2247
g18
F-20826.713499056656
sg19
Nsg20
F1.0
sg21
g0
(g22
g2
Ntp2248
Rp2249
(dp2250
g26
g27
sg28
Nsg29
g2249
sg30
(lp2251
g0
(g22
g2
Ntp2252
Rp2253
(dp2254
g26
g35
sg28
g2249
sg29
g2253
sg30
(lp2255
g0
(g22
g2
Ntp2256
Rp2257
(dp2258
g26
g46
sg28
g2253
sg29
g2257
sg30
(lp2259
g0
(g22
g2
Ntp2260
Rp2261
(dp2262
g26
g130
sg28
g2257
sg29
g0
(g22
g2
Ntp2263
Rp2264
g2262
bsg30
(lp2265
g0
(g22
g2
Ntp2266
Rp2267
(dp2268
g26
g75
sg28
g2261
sg29
g2267
sg30
Nsg52
g53
sg54
Nsbag0
(g22
g2
Ntp2269
Rp2270
(dp2271
g26
g164
sg28
g2261
sg29
g2270
sg30
Nsg52
g53
sg54
Nsbasg52
g53
sg54
Nsbasg52
g55
sg54
Nsbag0
(g22
g2
Ntp2272
Rp2273
(dp2274
g26
g35
sg28
g2253
sg29
g2273
sg30
(lp2275
g0
(g22
g2
Ntp2276
Rp2277
(dp2278
g26
g46
sg28
g2273
sg29
g2277
sg30
(lp2279
g0
(g22
g2
Ntp2280
Rp2281
(dp2282
g26
g83
sg28
g2277
sg29
g2281
sg30
Nsg52
g53
sg54
Nsbasg52
g55
sg54
Nsbag0
(g22
g2
Ntp2283
Rp2284
(dp2285
g26
g46
sg28
g2273
sg29
g2284
sg30
(lp2286
g0
(g22
g2
Ntp2287
Rp2288
(dp2289
g26
g164
sg28
g2284
sg29
g2288
sg30
Nsg52
g53
sg54
Nsbasg52
g55
sg54
Nsbasg52
g55
sg54
Nsbasg52
g55
sg54
Nsbasg52
g84
sg54
Nsbsg85
F-20811.05792232123
sg86
g87
sg178
Nsg29
g180
sg215
Nsg216
g217
((dp2290
S'g e N'
p2291
I19
sS'h i N'
p2292
I22
sS'g i g'
p2293
I22
sS'g i k'
p2294
I28
sS'N i g'
p2295
I20
sS'N e g'
p2296
I14
sS'k i k'
p2297
I27
sS'h e g'
p2298
I20
sS'k i g'
p2299
I25
sS'N i N'
p2300
I24
sS'h e k'
p2301
I28
sS'k e N'
p2302
I15
sS'N i k'
p2303
I27
sS'g e k'
p2304
I24
sS'h i k'
p2305
I20
sS'g e g'
p2306
I18
sS'N e N'
p2307
I14
sS'h i g'
p2308
I25
sS'g i N'
p2309
I24
sS'N e k'
p2310
I29
sS'k i N'
p2311
I19
sS'k e g'
p2312
I18
sS'k e k'
p2313
I16
sS'h e N'
p2314
I14
stp2315
Rp2316
sg242
F-15.655576735426484
sg243
F1.0
sg244
g245
sg248
Nsg246
g247
sg249
I25
sbsbag0
(g8
g2
Ntp2317
Rp2318
(dp2319
g12
F-19870.679611072468
sg13
g0
(g14
g2
Ntp2320
Rp2321
(dp2322
g18
F-19870.679611072468
sg19
Nsg20
F1.0
sg21
g0
(g22
g2
Ntp2323
Rp2324
(dp2325
g26
g27
sg28
Nsg29
g2324
sg30
(lp2326
g0
(g22
g2
Ntp2327
Rp2328
(dp2329
g26
g35
sg28
g2324
sg29
g2328
sg30
(lp2330
g0
(g22
g2
Ntp2331
Rp2332
(dp2333
g26
g46
sg28
g2328
sg29
g2332
sg30
(lp2334
g0
(g22
g2
Ntp2335
Rp2336
(dp2337
g26
g130
sg28
g2332
sg29
g2336
sg30
(lp2338
g0
(g22
g2
Ntp2339
Rp2340
(dp2341
g26
g150
sg28
g2336
sg29
g0
(g22
g2
Ntp2342
Rp2343
g2341
bsg30
Nsg52
g53
sg54
Nsbag0
(g22
g2
Ntp2344
Rp2345
(dp2346
g26
g164
sg28
g2336
sg29
g2345
sg30
Nsg52
g53
sg54
Nsbasg52
g53
sg54
Nsbasg52
g55
sg54
Nsbag0
(g22
g2
Ntp2347
Rp2348
(dp2349
g26
g35
sg28
g2328
sg29
g2348
sg30
(lp2350
g0
(g22
g2
Ntp2351
Rp2352
(dp2353
g26
g46
sg28
g2348
sg29
g2352
sg30
(lp2354
g0
(g22
g2
Ntp2355
Rp2356
(dp2357
g26
g83
sg28
g2352
sg29
g2356
sg30
Nsg52
g53
sg54
Nsbasg52
g55
sg54
Nsbag0
(g22
g2
Ntp2358
Rp2359
(dp2360
g26
g46
sg28
g2348
sg29
g2359
sg30
(lp2361
g0
(g22
g2
Ntp2362
Rp2363
(dp2364
g26
g164
sg28
g2359
sg29
g2363
sg30
Nsg52
g53
sg54
Nsbasg52
g55
sg54
Nsbasg52
g55
sg54
Nsbasg52
g55
sg54
Nsbasg52
g84
sg54
Nsbsg85
F-19855.024034337042
sg86
g87
sg178
Nsg29
g180
sg215
Nsg216
g217
((dp2365
S'h i N'
p2366
I10
sS'g i g'
p2367
I2
sS't i g'
p2368
I10
sS'g i k'
p2369
I7
sS't i k'
p2370
I14
sS's i g'
p2371
I12
sS'k i k'
p2372
I12
sS'z i k'
p2373
I10
sS'h e g'
p2374
I10
sS'k i g'
p2375
I9
sS'z i g'
p2376
I13
sS'h e k'
p2377
I9
sS's i k'
p2378
I13
sS'k e N'
p2379
I6
sS'h i k'
p2380
I12
sS'f i N'
p2381
I12
sS'h i g'
p2382
I8
sS'g i N'
p2383
I7
sS't i N'
p2384
I11
sS'z i N'
p2385
I4
sS'k i N'
p2386
I9
sS'k e g'
p2387
I11
sS'v e k'
p2388
I8
sS'k e k'
p2389
I14
sS'v e g'
p2390
I8
sS'v e N'
p2391
I8
sS'h e N'
p2392
I11
sS'f e N'
p2393
I14
sS'g e N'
p2394
I6
sS'N i N'
p2395
I17
sS'z e g'
p2396
I7
sS'z e k'
p2397
I12
sS'v i N'
p2398
I12
sS'N e g'
p2399
I3
sS's e N'
p2400
I10
sS's i N'
p2401
I6
sS'f i k'
p2402
I11
sS't e g'
p2403
I9
sS'N e k'
p2404
I9
sS'f e k'
p2405
I7
sS'N i k'
p2406
I13
sS'g e k'
p2407
I13
sS'v i g'
p2408
I9
sS't e k'
p2409
I5
sS'g e g'
p2410
I9
sS'f e g'
p2411
I5
sS'z e N'
p2412
I6
sS'N i g'
p2413
I13
sS's e k'
p2414
I9
sS't e N'
p2415
I8
sS'v i k'
p2416
I7
sS'N e N'
p2417
I14
sS's e g'
p2418
I11
sS'f i g'
p2419
I7
stp2420
Rp2421
sg242
F-15.655576735426484
sg243
F1.0
sg244
g245
sg248
Nsg246
g247
sg249
I25
sbsbag0
(g8
g2
Ntp2422
Rp2423
(dp2424
g12
F-19577.65803940446
sg13
g0
(g14
g2
Ntp2425
Rp2426
(dp2427
g18
F-19577.65803940446
sg19
Nsg20
F1.0
sg21
g0
(g22
g2
Ntp2428
Rp2429
(dp2430
g26
g27
sg28
Nsg29
g2429
sg30
(lp2431
g0
(g22
g2
Ntp2432
Rp2433
(dp2434
g26
g35
sg28
g2429
sg29
g2433
sg30
(lp2435
g0
(g22
g2
Ntp2436
Rp2437
(dp2438
g26
g46
sg28
g2433
sg29
g2437
sg30
(lp2439
g0
(g22
g2
Ntp2440
Rp2441
(dp2442
g26
g140
sg28
g2437
sg29
g0
(g22
g2
Ntp2443
Rp2444
g2442
bsg30
(lp2445
g0
(g22
g2
Ntp2446
Rp2447
(dp2448
g26
g130
sg28
g2441
sg29
g2447
sg30
(lp2449
g0
(g22
g2
Ntp2450
Rp2451
(dp2452
g26
g150
sg28
g2447
sg29
g2451
sg30
Nsg52
g53
sg54
Nsbag0
(g22
g2
Ntp2453
Rp2454
(dp2455
g26
g164
sg28
g2447
sg29
g2454
sg30
Nsg52
g53
sg54
Nsbasg52
g53
sg54
Nsbag0
(g22
g2
Ntp2456
Rp2457
(dp2458
g26
g154
sg28
g2441
sg29
g2457
sg30
Nsg52
g53
sg54
Nsbasg52
g53
sg54
Nsbasg52
g55
sg54
Nsbag0
(g22
g2
Ntp2459
Rp2460
(dp2461
g26
g35
sg28
g2433
sg29
g2460
sg30
(lp2462
g0
(g22
g2
Ntp2463
Rp2464
(dp2465
g26
g46
sg28
g2460
sg29
g2464
sg30
(lp2466
g0
(g22
g2
Ntp2467
Rp2468
(dp2469
g26
g83
sg28
g2464
sg29
g2468
sg30
Nsg52
g53
sg54
Nsbasg52
g55
sg54
Nsbag0
(g22
g2
Ntp2470
Rp2471
(dp2472
g26
g46
sg28
g2460
sg29
g2471
sg30
(lp2473
g0
(g22
g2
Ntp2474
Rp2475
(dp2476
g26
g164
sg28
g2471
sg29
g2475
sg30
Nsg52
g53
sg54
Nsbasg52
g55
sg54
Nsbasg52
g55
sg54
Nsbasg52
g55
sg54
Nsbasg52
g84
sg54
Nsbsg85
F-19555.72412887973
sg86
g87
sg178
Nsg29
g180
sg215
Nsg216
g217
((dp2477
S'h i N'
p2478
I15
sS'g i g'
p2479
I13
sS'g i k'
p2480
I20
sS'v e N'
p2481
I11
sS'k i k'
p2482
I9
sS'h e g'
p2483
I12
sS'k i g'
p2484
I10
sS'h e k'
p2485
I7
sS'k e N'
p2486
I16
sS'h i k'
p2487
I13
sS'h i g'
p2488
I20
sS'g i N'
p2489
I14
sS'k i N'
p2490
I7
sS'k e g'
p2491
I9
sS'v e k'
p2492
I10
sS'k e k'
p2493
I22
sS'v e g'
p2494
I20
sS'h e N'
p2495
I8
sS'f e N'
p2496
I18
sS'g e N'
p2497
I14
sS'N i N'
p2498
I13
sS'v i N'
p2499
I26
sS'N e g'
p2500
I13
sS'f i g'
p2501
I11
sS'f i k'
p2502
I12
sS'N e k'
p2503
I17
sS'v i g'
p2504
I15
sS'N i k'
p2505
I15
sS'g e k'
p2506
I12
sS'f e k'
p2507
I12
sS'g e g'
p2508
I16
sS'f e g'
p2509
I20
sS'N i g'
p2510
I22
sS'v i k'
p2511
I14
sS'N e N'
p2512
I17
sS'f i N'
p2513
I9
stp2514
Rp2515
sg242
F-21.93391052472922
sg243
F1.0
sg244
g245
sg248
Nsg246
g247
sg249
I25
sbsbag0
(g8
g2
Ntp2516
Rp2517
(dp2518
g12
F-18567.472728925437
sg13
g0
(g14
g2
Ntp2519
Rp2520
(dp2521
g18
F-18567.472728925437
sg19
Nsg20
F1.0
sg21
g0
(g22
g2
Ntp2522
Rp2523
(dp2524
g26
g27
sg28
Nsg29
g2523
sg30
(lp2525
g0
(g22
g2
Ntp2526
Rp2527
(dp2528
g26
g35
sg28
g2523
sg29
g2527
sg30
(lp2529
g0
(g22
g2
Ntp2530
Rp2531
(dp2532
g26
g46
sg28
g2527
sg29
g2531
sg30
(lp2533
g0
(g22
g2
Ntp2534
Rp2535
(dp2536
g26
g140
sg28
g2531
sg29
g2535
sg30
(lp2537
g0
(g22
g2
Ntp2538
Rp2539
(dp2540
g26
g130
sg28
g2535
sg29
g0
(g22
g2
Ntp2541
Rp2542
g2540
bsg30
(lp2543
g0
(g22
g2
Ntp2544
Rp2545
(dp2546
g26
g130
sg28
g2539
sg29
g2545
sg30
(lp2547
g0
(g22
g2
Ntp2548
Rp2549
(dp2550
g26
g150
sg28
g2545
sg29
g2549
sg30
Nsg52
g53
sg54
Nsbag0
(g22
g2
Ntp2551
Rp2552
(dp2553
g26
g164
sg28
g2545
sg29
g2552
sg30
Nsg52
g53
sg54
Nsbasg52
g53
sg54
Nsbag0
(g22
g2
Ntp2554
Rp2555
(dp2556
g26
g51
sg28
g2539
sg29
g2555
sg30
Nsg52
g53
sg54
Nsbasg52
g53
sg54
Nsbag0
(g22
g2
Ntp2557
Rp2558
(dp2559
g26
g154
sg28
g2535
sg29
g2558
sg30
Nsg52
g53
sg54
Nsbasg52
g53
sg54
Nsbasg52
g55
sg54
Nsbag0
(g22
g2
Ntp2560
Rp2561
(dp2562
g26
g35
sg28
g2527
sg29
g2561
sg30
(lp2563
g0
(g22
g2
Ntp2564
Rp2565
(dp2566
g26
g46
sg28
g2561
sg29
g2565
sg30
(lp2567
g0
(g22
g2
Ntp2568
Rp2569
(dp2570
g26
g83
sg28
g2565
sg29
g2569
sg30
Nsg52
g53
sg54
Nsbasg52
g55
sg54
Nsbag0
(g22
g2
Ntp2571
Rp2572
(dp2573
g26
g46
sg28
g2561
sg29
g2572
sg30
(lp2574
g0
(g22
g2
Ntp2575
Rp2576
(dp2577
g26
g164
sg28
g2572
sg29
g2576
sg30
Nsg52
g53
sg54
Nsbasg52
g55
sg54
Nsbasg52
g55
sg54
Nsbasg52
g55
sg54
Nsbasg52
g84
sg54
Nsbsg85
F-18539.260484611405
sg86
g87
sg178
Nsg29
g180
sg215
Nsg216
g217
((dp2578
S'h i N'
p2579
I7
sS'b e N'
p2580
I3
sS'g i k'
p2581
I7
sS'g i N'
p2582
I10
sS'v e N'
p2583
I10
sS'b i g'
p2584
I9
sS'm e g'
p2585
I14
sS'w i g'
p2586
I11
sS'h e g'
p2587
I10
sS'w i k'
p2588
I5
sS'g i g'
p2589
I8
sS'h e k'
p2590
I9
sS'b i k'
p2591
I11
sS'm e k'
p2592
I5
sS'b e k'
p2593
I6
sS'h i k'
p2594
I8
sS'f i N'
p2595
I5
sS'h i g'
p2596
I3
sS'b e g'
p2597
I8
sS'k e N'
p2598
I11
sS'f e k'
p2599
I10
sS'k i N'
p2600
I8
sS'k e g'
p2601
I13
sS'v e k'
p2602
I6
sS'b i N'
p2603
I14
sS'v e g'
p2604
I5
sS'm e N'
p2605
I5
sS'w i N'
p2606
I8
sS'h e N'
p2607
I10
sS'f e N'
p2608
I11
sS'g e N'
p2609
I6
sS'p i g'
p2610
I12
sS'N i N'
p2611
I4
sS'k i g'
p2612
I16
sS'v i N'
p2613
I7
sS'p i k'
p2614
I5
sS'k e k'
p2615
I5
sS'p e k'
p2616
I9
sS'f i g'
p2617
I10
sS'm i N'
p2618
I7
sS'f i k'
p2619
I10
sS'N e k'
p2620
I8
sS'p e g'
p2621
I7
sS'N i k'
p2622
I6
sS'g e k'
p2623
I12
sS'v i g'
p2624
I7
sS'N e g'
p2625
I8
sS'g e g'
p2626
I6
sS'v i k'
p2627
I14
sS'w e N'
p2628
I12
sS'N i g'
p2629
I8
sS'm i k'
p2630
I6
sS'w e k'
p2631
I6
sS'p e N'
p2632
I11
sS'f e g'
p2633
I9
sS'w e g'
p2634
I14
sS'k i k'
p2635
I9
sS'N e N'
p2636
I9
sS'p i N'
p2637
I7
sS'm i g'
p2638
I12
stp2639
Rp2640
sg242
F-28.212244314031963
sg243
F1.0
sg244
g245
sg248
Nsg246
g247
sg249
I25
sbsbag0
(g8
g2
Ntp2641
Rp2642
(dp2643
g12
F-18192.743453042414
sg13
g0
(g14
g2
Ntp2644
Rp2645
(dp2646
g18
F-18192.743453042414
sg19
Nsg20
F1.0
sg21
g0
(g22
g2
Ntp2647
Rp2648
(dp2649
g26
g27
sg28
Nsg29
g2648
sg30
(lp2650
g0
(g22
g2
Ntp2651
Rp2652
(dp2653
g26
g35
sg28
g2648
sg29
g2652
sg30
(lp2654
g0
(g22
g2
Ntp2655
Rp2656
(dp2657
g26
g46
sg28
g2652
sg29
g2656
sg30
(lp2658
g0
(g22
g2
Ntp2659
Rp2660
(dp2661
g26
g130
sg28
g2656
sg29
g0
(g22
g2
Ntp2662
Rp2663
g2661
bsg30
(lp2664
g0
(g22
g2
Ntp2665
Rp2666
(dp2667
g26
g140
sg28
g2660
sg29
g2666
sg30
(lp2668
g0
(g22
g2
Ntp2669
Rp2670
(dp2671
g26
g130
sg28
g2666
sg29
g2670
sg30
(lp2672
g0
(g22
g2
Ntp2673
Rp2674
(dp2675
g26
g130
sg28
g2670
sg29
g2674
sg30
(lp2676
g0
(g22
g2
Ntp2677
Rp2678
(dp2679
g26
g150
sg28
g2674
sg29
g2678
sg30
Nsg52
g53
sg54
Nsbag0
(g22
g2
Ntp2680
Rp2681
(dp2682
g26
g164
sg28
g2674
sg29
g2681
sg30
Nsg52
g53
sg54
Nsbasg52
g53
sg54
Nsbag0
(g22
g2
Ntp2683
Rp2684
(dp2685
g26
g51
sg28
g2670
sg29
g2684
sg30
Nsg52
g53
sg54
Nsbasg52
g53
sg54
Nsbag0
(g22
g2
Ntp2686
Rp2687
(dp2688
g26
g154
sg28
g2666
sg29
g2687
sg30
Nsg52
g53
sg54
Nsbasg52
g53
sg54
Nsbag0
(g22
g2
Ntp2689
Rp2690
(dp2691
g26
g154
sg28
g2660
sg29
g2690
sg30
Nsg52
g53
sg54
Nsbasg52
g53
sg54
Nsbasg52
g55
sg54
Nsbag0
(g22
g2
Ntp2692
Rp2693
(dp2694
g26
g35
sg28
g2652
sg29
g2693
sg30
(lp2695
g0
(g22
g2
Ntp2696
Rp2697
(dp2698
g26
g46
sg28
g2693
sg29
g2697
sg30
(lp2699
g0
(g22
g2
Ntp2700
Rp2701
(dp2702
g26
g83
sg28
g2697
sg29
g2701
sg30
Nsg52
g53
sg54
Nsbasg52
g55
sg54
Nsbag0
(g22
g2
Ntp2703
Rp2704
(dp2705
g26
g46
sg28
g2693
sg29
g2704
sg30
(lp2706
g0
(g22
g2
Ntp2707
Rp2708
(dp2709
g26
g164
sg28
g2704
sg29
g2708
sg30
Nsg52
g53
sg54
Nsbasg52
g55
sg54
Nsbasg52
g55
sg54
Nsbasg52
g55
sg54
Nsbasg52
g84
sg54
Nsbsg85
F-18158.25287493908
sg86
g87
sg178
Nsg29
g180
sg215
Nsg216
g217
((dp2710
S'h i N'
p2711
I5
sS'g i g'
p2712
I3
sS'l i N'
p2713
I3
sS'g i k'
p2714
I6
sS't e k'
p2715
I2
sS'b e g'
p2716
I3
sS's i g'
p2717
I3
sS'b i g'
p2718
I2
sS'm e g'
p2719
I4
sS'l e g'
p2720
I4
sS'w i g'
p2721
I6
sS'z i k'
p2722
I4
sS'h e g'
p2723
I3
sS'w i k'
p2724
I7
sS'z i g'
p2725
I8
sS'h e k'
p2726
I4
sS's i k'
p2727
I7
sS'b i k'
p2728
I8
sS'm e k'
p2729
I5
sS'l e k'
p2730
I7
sS'b e k'
p2731
I1
sS'l i k'
p2732
I4
sS'h i k'
p2733
I3
sS'h i g'
p2734
I6
sS'g i N'
p2735
I2
sS'l i g'
p2736
I3
sS'z i N'
p2737
I4
sS'b i N'
p2738
I5
sS's i N'
p2739
I7
sS'l e N'
p2740
I3
sS'm e N'
p2741
I4
sS'w i N'
p2742
I4
sS'h e N'
p2743
I2
sS'f e N'
p2744
I4
sS'p i g'
p2745
I4
sS'N i N'
p2746
I3
sS'z e g'
p2747
I4
sS'd e k'
p2748
I7
sS'z e k'
p2749
I1
sS'd e g'
p2750
I8
sS'v i N'
p2751
I4
sS'p i k'
p2752
I4
sS'N e g'
p2753
I8
sS'r e N'
p2754
I5
sS's e N'
p2755
I5
sS'n e N'
p2756
I4
sS'f i k'
p2757
I4
sS'N e k'
p2758
I6
sS'f e k'
p2759
I1
sS'N i k'
p2760
I7
sS'd e N'
p2761
I6
sS'v i g'
p2762
I4
sS'f e g'
p2763
I7
sS'p i N'
p2764
I6
sS'z e N'
p2765
I5
sS'N i g'
p2766
I2
sS's e k'
p2767
I9
sS'n e g'
p2768
I5
sS'v i k'
p2769
I7
sS'N e N'
p2770
I2
sS's e g'
p2771
I3
sS'n e k'
p2772
I11
sS'n i k'
p2773
I5
sS't i g'
p2774
I7
sS't i k'
p2775
I3
sS'n i g'
p2776
I3
sS'v e N'
p2777
I4
sS'k i k'
p2778
I4
sS'k i g'
p2779
I4
sS'k e N'
p2780
I11
sS'd i N'
p2781
I4
sS'n i N'
p2782
I3
sS'r e k'
p2783
I3
sS't e N'
p2784
I4
sS't i N'
p2785
I8
sS'k i N'
p2786
I14
sS'k e g'
p2787
I10
sS'v e k'
p2788
I5
sS'd i g'
p2789
I1
sS'k e k'
p2790
I6
sS'v e g'
p2791
I5
sS'd i k'
p2792
I2
sS'g e N'
p2793
I4
sS'r i N'
p2794
I4
sS'w e N'
p2795
I3
sS'p e k'
p2796
I7
sS'b e N'
p2797
I6
sS'm i N'
p2798
I8
sS't e g'
p2799
I3
sS'p e g'
p2800
I9
sS'r i g'
p2801
I8
sS'g e k'
p2802
I6
sS'g e g'
p2803
I6
sS'f i N'
p2804
I4
sS'r i k'
p2805
I9
sS'r e g'
p2806
I9
sS'm i k'
p2807
I5
sS'w e k'
p2808
I6
sS'p e N'
p2809
I6
sS'w e g'
p2810
I2
sS'm i g'
p2811
I10
sS'f i g'
p2812
I3
stp2813
Rp2814
sg242
F-34.4905781033347
sg243
F1.0
sg244
g245
sg248
Nsg246
g247
sg249
I25
sbsbag0
(g8
g2
Ntp2815
Rp2816
(dp2817
g12
F-18053.826581226444
sg13
g0
(g14
g2
Ntp2818
Rp2819
(dp2820
g18
F-18053.826581226444
sg19
Nsg20
F1.0
sg21
g0
(g22
g2
Ntp2821
Rp2822
(dp2823
g26
g27
sg28
Nsg29
g2822
sg30
(lp2824
g0
(g22
g2
Ntp2825
Rp2826
(dp2827
g26
g35
sg28
g2822
sg29
g2826
sg30
(lp2828
g0
(g22
g2
Ntp2829
Rp2830
(dp2831
g26
g46
sg28
g2826
sg29
g2830
sg30
(lp2832
g0
(g22
g2
Ntp2833
Rp2834
(dp2835
g26
g130
sg28
g2830
sg29
g2834
sg30
(lp2836
g0
(g22
g2
Ntp2837
Rp2838
(dp2839
g26
g140
sg28
g2834
sg29
g2838
sg30
(lp2840
g0
(g22
g2
Ntp2841
Rp2842
(dp2843
g26
g130
sg28
g2838
sg29
g2842
sg30
(lp2844
g0
(g22
g2
Ntp2845
Rp2846
(dp2847
g26
g140
sg28
g2842
sg29
g0
(g22
g2
Ntp2848
Rp2849
g2847
bsg30
(lp2850
g0
(g22
g2
Ntp2851
Rp2852
(dp2853
g26
g130
sg28
g2846
sg29
g2852
sg30
(lp2854
g0
(g22
g2
Ntp2855
Rp2856
(dp2857
g26
g150
sg28
g2852
sg29
g2856
sg30
Nsg52
g53
sg54
Nsbag0
(g22
g2
Ntp2858
Rp2859
(dp2860
g26
g164
sg28
g2852
sg29
g2859
sg30
Nsg52
g53
sg54
Nsbasg52
g53
sg54
Nsbag0
(g22
g2
Ntp2861
Rp2862
(dp2863
g26
g63
sg28
g2846
sg29
g2862
sg30
Nsg52
g53
sg54
Nsbasg52
g53
sg54
Nsbag0
(g22
g2
Ntp2864
Rp2865
(dp2866
g26
g51
sg28
g2842
sg29
g2865
sg30
Nsg52
g53
sg54
Nsbasg52
g53
sg54
Nsbag0
(g22
g2
Ntp2867
Rp2868
(dp2869
g26
g154
sg28
g2838
sg29
g2868
sg30
Nsg52
g53
sg54
Nsbasg52
g53
sg54
Nsbag0
(g22
g2
Ntp2870
Rp2871
(dp2872
g26
g154
sg28
g2834
sg29
g2871
sg30
Nsg52
g53
sg54
Nsbasg52
g53
sg54
Nsbasg52
g55
sg54
Nsbag0
(g22
g2
Ntp2873
Rp2874
(dp2875
g26
g35
sg28
g2826
sg29
g2874
sg30
(lp2876
g0
(g22
g2
Ntp2877
Rp2878
(dp2879
g26
g46
sg28
g2874
sg29
g2878
sg30
(lp2880
g0
(g22
g2
Ntp2881
Rp2882
(dp2883
g26
g83
sg28
g2878
sg29
g2882
sg30
Nsg52
g53
sg54
Nsbasg52
g55
sg54
Nsbag0
(g22
g2
Ntp2884
Rp2885
(dp2886
g26
g46
sg28
g2874
sg29
g2885
sg30
(lp2887
g0
(g22
g2
Ntp2888
Rp2889
(dp2890
g26
g164
sg28
g2885
sg29
g2889
sg30
Nsg52
g53
sg54
Nsbasg52
g55
sg54
Nsbasg52
g55
sg54
Nsbasg52
g55
sg54
Nsbasg52
g84
sg54
Nsbsg85
F-18013.057669333804
sg86
g87
sg178
Nsg29
g180
sg215
Nsg216
g217
((dp2891
S'h i N'
p2892
I4
sS'g i g'
p2893
I3
sS'l i N'
p2894
I12
sS'g i k'
p2895
I2
sS't e k'
p2896
I7
sS'b e g'
p2897
I5
sS's i g'
p2898
I2
sS'b i g'
p2899
I3
sS'm e g'
p2900
I5
sS'l e g'
p2901
I5
sS'w i g'
p2902
I7
sS'z i k'
p2903
I3
sS'h e g'
p2904
I4
sS'w i k'
p2905
I7
sS'z i g'
p2906
I3
sS'h e k'
p2907
I14
sS's i k'
p2908
I4
sS'b i k'
p2909
I2
sS'm e k'
p2910
I2
sS'l e k'
p2911
I4
sS'b e k'
p2912
I6
sS'l i k'
p2913
I8
sS'h i k'
p2914
I8
sS'h i g'
p2915
I3
sS'g i N'
p2916
I6
sS'l i g'
p2917
I2
sS'z i N'
p2918
I6
sS'b i N'
p2919
I4
sS's i N'
p2920
I1
sS'l e N'
p2921
I4
sS'm e N'
p2922
I4
sS'w i N'
p2923
I2
sS'h e N'
p2924
I7
sS'f e N'
p2925
I6
sS'p i g'
p2926
I2
sS'N i N'
p2927
I3
sS'z e g'
p2928
I4
sS'd e k'
p2929
I6
sS'z e k'
p2930
I4
sS'd e g'
p2931
I8
sS'v i N'
p2932
I8
sS'p i k'
p2933
I8
sS'N e g'
p2934
I6
sS'r e N'
p2935
I6
sS's e N'
p2936
I4
sS'n e N'
p2937
I6
sS'f i k'
p2938
I5
sS'N e k'
p2939
I4
sS'f e k'
p2940
I4
sS'N i k'
p2941
I7
sS'd e N'
p2942
I3
sS'v i g'
p2943
I6
sS'f e g'
p2944
I5
sS'p i N'
p2945
I7
sS'z e N'
p2946
I3
sS'N i g'
p2947
I10
sS's e k'
p2948
I4
sS'n e g'
p2949
I3
sS'v i k'
p2950
I6
sS'N e N'
p2951
I6
sS's e g'
p2952
I3
sS'n e k'
p2953
I11
sS'n i k'
p2954
I5
sS't i g'
p2955
I7
sS't i k'
p2956
I3
sS'n i g'
p2957
I3
sS'v e N'
p2958
I7
sS'k i k'
p2959
I4
sS'k i g'
p2960
I6
sS'k e N'
p2961
I8
sS'd i N'
p2962
I5
sS'n i N'
p2963
I6
sS'r e k'
p2964
I4
sS't e N'
p2965
I1
sS't i N'
p2966
I10
sS'k i N'
p2967
I6
sS'k e g'
p2968
I4
sS'v e k'
p2969
I8
sS'd i g'
p2970
I8
sS'k e k'
p2971
I3
sS'v e g'
p2972
I2
sS'd i k'
p2973
I8
sS'g e N'
p2974
I5
sS'r i N'
p2975
I6
sS'w e N'
p2976
I5
sS'p e k'
p2977
I5
sS'b e N'
p2978
I8
sS'm i N'
p2979
I2
sS't e g'
p2980
I6
sS'p e g'
p2981
I4
sS'r i g'
p2982
I1
sS'g e k'
p2983
I3
sS'g e g'
p2984
I3
sS'f i N'
p2985
I5
sS'r i k'
p2986
I3
sS'r e g'
p2987
I3
sS'm i k'
p2988
I5
sS'w e k'
p2989
I9
sS'p e N'
p2990
I7
sS'w e g'
p2991
I1
sS'm i g'
p2992
I1
sS'f i g'
p2993
I5
stp2994
Rp2995
sg242
F-40.768911892637426
sg243
F1.0
sg244
g245
sg248
Nsg246
g247
sg249
I25
sbsbag0
(g8
g2
Ntp2996
Rp2997
(dp2998
g12
F-17872.95136921082
sg13
g0
(g14
g2
Ntp2999
Rp3000
(dp3001
g18
F-17872.95136921082
sg19
Nsg20
F1.0
sg21
g0
(g22
g2
Ntp3002
Rp3003
(dp3004
g26
g27
sg28
Nsg29
g3003
sg30
(lp3005
g0
(g22
g2
Ntp3006
Rp3007
(dp3008
g26
g35
sg28
g3003
sg29
g3007
sg30
(lp3009
g0
(g22
g2
Ntp3010
Rp3011
(dp3012
g26
g46
sg28
g3007
sg29
g3011
sg30
(lp3013
g0
(g22
g2
Ntp3014
Rp3015
(dp3016
g26
g130
sg28
g3011
sg29
g3015
sg30
(lp3017
g0
(g22
g2
Ntp3018
Rp3019
(dp3020
g26
g140
sg28
g3015
sg29
g3019
sg30
(lp3021
g0
(g22
g2
Ntp3022
Rp3023
(dp3024
g26
g130
sg28
g3019
sg29
g3023
sg30
(lp3025
g0
(g22
g2
Ntp3026
Rp3027
(dp3028
g26
g140
sg28
g3023
sg29
g3027
sg30
(lp3029
g0
(g22
g2
Ntp3030
Rp3031
(dp3032
g26
g140
sg28
g3027
sg29
g0
(g22
g2
Ntp3033
Rp3034
g3032
bsg30
(lp3035
g0
(g22
g2
Ntp3036
Rp3037
(dp3038
g26
g130
sg28
g3031
sg29
g3037
sg30
(lp3039
g0
(g22
g2
Ntp3040
Rp3041
(dp3042
g26
g150
sg28
g3037
sg29
g3041
sg30
Nsg52
g53
sg54
Nsbag0
(g22
g2
Ntp3043
Rp3044
(dp3045
g26
g164
sg28
g3037
sg29
g3044
sg30
Nsg52
g53
sg54
Nsbasg52
g53
sg54
Nsbag0
(g22
g2
Ntp3046
Rp3047
(dp3048
g26
g83
sg28
g3031
sg29
g3047
sg30
Nsg52
g53
sg54
Nsbasg52
g53
sg54
Nsbag0
(g22
g2
Ntp3049
Rp3050
(dp3051
g26
g63
sg28
g3027
sg29
g3050
sg30
Nsg52
g53
sg54
Nsbasg52
g53
sg54
Nsbag0
(g22
g2
Ntp3052
Rp3053
(dp3054
g26
g51
sg28
g3023
sg29
g3053
sg30
Nsg52
g53
sg54
Nsbasg52
g53
sg54
Nsbag0
(g22
g2
Ntp3055
Rp3056
(dp3057
g26
g154
sg28
g3019
sg29
g3056
sg30
Nsg52
g53
sg54
Nsbasg52
g53
sg54
Nsbag0
(g22
g2
Ntp3058
Rp3059
(dp3060
g26
g154
sg28
g3015
sg29
g3059
sg30
Nsg52
g53
sg54
Nsbasg52
g53
sg54
Nsbasg52
g55
sg54
Nsbag0
(g22
g2
Ntp3061
Rp3062
(dp3063
g26
g35
sg28
g3007
sg29
g3062
sg30
(lp3064
g0
(g22
g2
Ntp3065
Rp3066
(dp3067
g26
g46
sg28
g3062
sg29
g3066
sg30
(lp3068
g0
(g22
g2
Ntp3069
Rp3070
(dp3071
g26
g83
sg28
g3066
sg29
g3070
sg30
Nsg52
g53
sg54
Nsbasg52
g55
sg54
Nsbag0
(g22
g2
Ntp3072
Rp3073
(dp3074
g26
g46
sg28
g3062
sg29
g3073
sg30
(lp3075
g0
(g22
g2
Ntp3076
Rp3077
(dp3078
g26
g164
sg28
g3073
sg29
g3077
sg30
Nsg52
g53
sg54
Nsbasg52
g55
sg54
Nsbasg52
g55
sg54
Nsbasg52
g55
sg54
Nsbasg52
g84
sg54
Nsbsg85
F-17825.90412352888
sg86
g87
sg178
Nsg29
g180
sg215
Nsg216
g217
((dp3079
S'h i N'
p3080
I4
sS'g i g'
p3081
I5
sS'l i N'
p3082
I7
sS'g i k'
p3083
I3
sS't e k'
p3084
I2
sS'b e g'
p3085
I8
sS's i g'
p3086
I8
sS'b i g'
p3087
I5
sS'm e g'
p3088
I3
sS'l e g'
p3089
I6
sS'w i g'
p3090
I7
sS'z i k'
p3091
I5
sS'h e g'
p3092
I6
sS'w i k'
p3093
I5
sS'z i g'
p3094
I7
sS'h e k'
p3095
I6
sS's i k'
p3096
I3
sS'b i k'
p3097
I1
sS'm e k'
p3098
I6
sS'l e k'
p3099
I2
sS'b e k'
p3100
I2
sS'l i k'
p3101
I5
sS'h i k'
p3102
I5
sS'h i g'
p3103
I5
sS'g i N'
p3104
I8
sS'l i g'
p3105
I6
sS'z i N'
p3106
I6
sS'b i N'
p3107
I8
sS's i N'
p3108
I7
sS'l e N'
p3109
I5
sS'm e N'
p3110
I3
sS'w i N'
p3111
I6
sS'h e N'
p3112
I1
sS'f e N'
p3113
I9
sS'p i g'
p3114
I5
sS'N i N'
p3115
I3
sS'z e g'
p3116
I5
sS'd e k'
p3117
I4
sS'z e k'
p3118
I4
sS'd e g'
p3119
I3
sS'v i N'
p3120
I3
sS'p i k'
p3121
I4
sS'N e g'
p3122
I2
sS'r e N'
p3123
I3
sS's e N'
p3124
I2
sS'n e N'
p3125
I10
sS'f i k'
p3126
I2
sS'N e k'
p3127
I5
sS'f e k'
p3128
I8
sS'N i k'
p3129
I4
sS'd e N'
p3130
I5
sS'v i g'
p3131
I3
sS'f e g'
p3132
I7
sS'p i N'
p3133
I5
sS'z e N'
p3134
I6
sS'N i g'
p3135
I3
sS's e k'
p3136
I6
sS'n e g'
p3137
I5
sS'v i k'
p3138
I5
sS'N e N'
p3139
I8
sS's e g'
p3140
I5
sS'n e k'
p3141
I6
sS'n i k'
p3142
I10
sS't i g'
p3143
I4
sS't i k'
p3144
I7
sS'n i g'
p3145
I4
sS'v e N'
p3146
I1
sS'k i k'
p3147
I4
sS'k i g'
p3148
I7
sS'k e N'
p3149
I8
sS'd i N'
p3150
I4
sS'n i N'
p3151
I2
sS'r e k'
p3152
I11
sS't e N'
p3153
I4
sS't i N'
p3154
I3
sS'k i N'
p3155
I2
sS'k e g'
p3156
I9
sS'v e k'
p3157
I3
sS'd i g'
p3158
I8
sS'k e k'
p3159
I11
sS'v e g'
p3160
I5
sS'd i k'
p3161
I5
sS'g e N'
p3162
I5
sS'r i N'
p3163
I6
sS'w e N'
p3164
I4
sS'p e k'
p3165
I7
sS'b e N'
p3166
I4
sS'm i N'
p3167
I4
sS't e g'
p3168
I4
sS'p e g'
p3169
I8
sS'r i g'
p3170
I5
sS'g e k'
p3171
I3
sS'g e g'
p3172
I4
sS'f i N'
p3173
I6
sS'r i k'
p3174
I4
sS'r e g'
p3175
I7
sS'm i k'
p3176
I2
sS'w e k'
p3177
I5
sS'p e N'
p3178
I5
sS'w e g'
p3179
I2
sS'm i g'
p3180
I5
sS'f i g'
p3181
I4
stp3182
Rp3183
sg242
F-47.04724568194016
sg243
F1.0
sg244
g245
sg248
Nsg246
g247
sg249
I25
sbsbag0
(g8
g2
Ntp3184
Rp3185
(dp3186
g12
F-17809.477962126308
sg13
g0
(g14
g2
Ntp3187
Rp3188
(dp3189
g18
F-17809.477962126308
sg19
Nsg20
F1.0
sg21
g0
(g22
g2
Ntp3190
Rp3191
(dp3192
g26
g27
sg28
Nsg29
g3191
sg30
(lp3193
g0
(g22
g2
Ntp3194
Rp3195
(dp3196
g26
g35
sg28
g3191
sg29
g3195
sg30
(lp3197
g0
(g22
g2
Ntp3198
Rp3199
(dp3200
g26
g46
sg28
g3195
sg29
g3199
sg30
(lp3201
g0
(g22
g2
Ntp3202
Rp3203
(dp3204
g26
g130
sg28
g3199
sg29
g3203
sg30
(lp3205
g0
(g22
g2
Ntp3206
Rp3207
(dp3208
g26
g140
sg28
g3203
sg29
g3207
sg30
(lp3209
g0
(g22
g2
Ntp3210
Rp3211
(dp3212
g26
g130
sg28
g3207
sg29
g3211
sg30
(lp3213
g0
(g22
g2
Ntp3214
Rp3215
(dp3216
g26
g140
sg28
g3211
sg29
g3215
sg30
(lp3217
g0
(g22
g2
Ntp3218
Rp3219
(dp3220
g26
g140
sg28
g3215
sg29
g3219
sg30
(lp3221
g0
(g22
g2
Ntp3222
Rp3223
(dp3224
g26
g130
sg28
g3219
sg29
g0
(g22
g2
Ntp3225
Rp3226
g3224
bsg30
(lp3227
g0
(g22
g2
Ntp3228
Rp3229
(dp3230
g26
g51
sg28
g3223
sg29
g3229
sg30
Nsg52
g53
sg54
Nsbag0
(g22
g2
Ntp3231
Rp3232
(dp3233
g26
g130
sg28
g3223
sg29
g3232
sg30
(lp3234
g0
(g22
g2
Ntp3235
Rp3236
(dp3237
g26
g150
sg28
g3232
sg29
g3236
sg30
Nsg52
g53
sg54
Nsbag0
(g22
g2
Ntp3238
Rp3239
(dp3240
g26
g164
sg28
g3232
sg29
g3239
sg30
Nsg52
g53
sg54
Nsbasg52
g53
sg54
Nsbasg52
g53
sg54
Nsbag0
(g22
g2
Ntp3241
Rp3242
(dp3243
g26
g83
sg28
g3219
sg29
g3242
sg30
Nsg52
g53
sg54
Nsbasg52
g53
sg54
Nsbag0
(g22
g2
Ntp3244
Rp3245
(dp3246
g26
g63
sg28
g3215
sg29
g3245
sg30
Nsg52
g53
sg54
Nsbasg52
g53
sg54
Nsbag0
(g22
g2
Ntp3247
Rp3248
(dp3249
g26
g51
sg28
g3211
sg29
g3248
sg30
Nsg52
g53
sg54
Nsbasg52
g53
sg54
Nsbag0
(g22
g2
Ntp3250
Rp3251
(dp3252
g26
g154
sg28
g3207
sg29
g3251
sg30
Nsg52
g53
sg54
Nsbasg52
g53
sg54
Nsbag0
(g22
g2
Ntp3253
Rp3254
(dp3255
g26
g154
sg28
g3203
sg29
g3254
sg30
Nsg52
g53
sg54
Nsbasg52
g53
sg54
Nsbasg52
g55
sg54
Nsbag0
(g22
g2
Ntp3256
Rp3257
(dp3258
g26
g35
sg28
g3195
sg29
g3257
sg30
(lp3259
g0
(g22
g2
Ntp3260
Rp3261
(dp3262
g26
g46
sg28
g3257
sg29
g3261
sg30
(lp3263
g0
(g22
g2
Ntp3264
Rp3265
(dp3266
g26
g83
sg28
g3261
sg29
g3265
sg30
Nsg52
g53
sg54
Nsbasg52
g55
sg54
Nsbag0
(g22
g2
Ntp3267
Rp3268
(dp3269
g26
g46
sg28
g3257
sg29
g3268
sg30
(lp3270
g0
(g22
g2
Ntp3271
Rp3272
(dp3273
g26
g164
sg28
g3268
sg29
g3272
sg30
Nsg52
g53
sg54
Nsbasg52
g55
sg54
Nsbasg52
g55
sg54
Nsbasg52
g55
sg54
Nsbasg52
g84
sg54
Nsbsg85
F-17756.152382655066
sg86
g87
sg178
Nsg29
g180
sg215
Nsg216
g217
((dp3274
S'h i N'
p3275
I3
sS'g i g'
p3276
I1
sS'l i N'
p3277
I6
sS'g i k'
p3278
I6
sS't e k'
p3279
I6
sS'b e g'
p3280
I4
sS's i g'
p3281
I8
sS'b i g'
p3282
I6
sS'm e g'
p3283
I3
sS'l e g'
p3284
I9
sS'w i g'
p3285
I4
sS'z i k'
p3286
I7
sS'h e g'
p3287
I8
sS'w i k'
p3288
I7
sS'z i g'
p3289
I7
sS'h e k'
p3290
I10
sS's i k'
p3291
I4
sS'b i k'
p3292
I9
sS'm e k'
p3293
I5
sS'l e k'
p3294
I4
sS'b e k'
p3295
I4
sS'l i k'
p3296
I7
sS'h i k'
p3297
I3
sS'h i g'
p3298
I4
sS'g i N'
p3299
I2
sS'l i g'
p3300
I10
sS'z i N'
p3301
I1
sS'b i N'
p3302
I3
sS's i N'
p3303
I3
sS'l e N'
p3304
I6
sS'm e N'
p3305
I3
sS'w i N'
p3306
I7
sS'h e N'
p3307
I8
sS'f e N'
p3308
I5
sS'p i g'
p3309
I5
sS'N i N'
p3310
I6
sS'z e g'
p3311
I2
sS'd e k'
p3312
I9
sS'z e k'
p3313
I4
sS'd e g'
p3314
I5
sS'v i N'
p3315
I6
sS'p i k'
p3316
I3
sS'N e g'
p3317
I1
sS'r e N'
p3318
I5
sS's e N'
p3319
I5
sS'n e N'
p3320
I8
sS'f i k'
p3321
I7
sS'N e k'
p3322
I2
sS'f e k'
p3323
I7
sS'N i k'
p3324
I2
sS'd e N'
p3325
I8
sS'v i g'
p3326
I6
sS'f e g'
p3327
I7
sS'p i N'
p3328
I2
sS'z e N'
p3329
I1
sS'N i g'
p3330
I6
sS's e k'
p3331
I7
sS'n e g'
p3332
I8
sS'v i k'
p3333
I10
sS'N e N'
p3334
I5
sS's e g'
p3335
I9
sS'n e k'
p3336
I5
sS'n i k'
p3337
I5
sS't i g'
p3338
I5
sS't i k'
p3339
I3
sS'n i g'
p3340
I7
sS'v e N'
p3341
I4
sS'k i k'
p3342
I7
sS'k i g'
p3343
I4
sS'k e N'
p3344
I5
sS'd i N'
p3345
I7
sS'n i N'
p3346
I5
sS'r e k'
p3347
I4
sS't e N'
p3348
I6
sS't i N'
p3349
I5
sS'k i N'
p3350
I3
sS'k e g'
p3351
I4
sS'v e k'
p3352
I3
sS'd i g'
p3353
I1
sS'k e k'
p3354
I11
sS'v e g'
p3355
I8
sS'd i k'
p3356
I3
sS'r i N'
p3357
I4
sS'w e N'
p3358
I6
sS'p e k'
p3359
I6
sS'b e N'
p3360
I6
sS'm i N'
p3361
I4
sS't e g'
p3362
I3
sS'p e g'
p3363
I5
sS'r i g'
p3364
I1
sS'g e k'
p3365
I4
sS'g e g'
p3366
I3
sS'f i N'
p3367
I5
sS'r i k'
p3368
I5
sS'r e g'
p3369
I3
sS'm i k'
p3370
I4
sS'w e k'
p3371
I6
sS'p e N'
p3372
I2
sS'w e g'
p3373
I2
sS'm i g'
p3374
I5
sS'f i g'
p3375
I4
stp3376
Rp3377
sg242
F-53.3255794712429
sg243
F1.0
sg244
g245
sg248
Nsg246
g247
sg249
I25
sbsbag0
(g8
g2
Ntp3378
Rp3379
(dp3380
g12
F-17791.332459278517
sg13
g0
(g14
g2
Ntp3381
Rp3382
(dp3383
g18
F-17791.332459278517
sg19
Nsg20
F1.0
sg21
g0
(g22
g2
Ntp3384
Rp3385
(dp3386
g26
g27
sg28
Nsg29
g3385
sg30
(lp3387
g0
(g22
g2
Ntp3388
Rp3389
(dp3390
g26
g35
sg28
g3385
sg29
g3389
sg30
(lp3391
g0
(g22
g2
Ntp3392
Rp3393
(dp3394
g26
g46
sg28
g3389
sg29
g3393
sg30
(lp3395
g0
(g22
g2
Ntp3396
Rp3397
(dp3398
g26
g130
sg28
g3393
sg29
g3397
sg30
(lp3399
g0
(g22
g2
Ntp3400
Rp3401
(dp3402
g26
g140
sg28
g3397
sg29
g3401
sg30
(lp3403
g0
(g22
g2
Ntp3404
Rp3405
(dp3406
g26
g130
sg28
g3401
sg29
g3405
sg30
(lp3407
g0
(g22
g2
Ntp3408
Rp3409
(dp3410
g26
g140
sg28
g3405
sg29
g3409
sg30
(lp3411
g0
(g22
g2
Ntp3412
Rp3413
(dp3414
g26
g140
sg28
g3409
sg29
g3413
sg30
(lp3415
g0
(g22
g2
Ntp3416
Rp3417
(dp3418
g26
g130
sg28
g3413
sg29
g3417
sg30
(lp3419
g0
(g22
g2
Ntp3420
Rp3421
(dp3422
g26
g135
sg28
g3417
sg29
g0
(g22
g2
Ntp3423
Rp3424
g3422
bsg30
(lp3425
g0
(g22
g2
Ntp3426
Rp3427
(dp3428
g26
g150
sg28
g3421
sg29
g3427
sg30
Nsg52
g53
sg54
Nsbag0
(g22
g2
Ntp3429
Rp3430
(dp3431
g26
g164
sg28
g3421
sg29
g3430
sg30
Nsg52
g53
sg54
Nsbasg52
g53
sg54
Nsbag0
(g22
g2
Ntp3432
Rp3433
(dp3434
g26
g130
sg28
g3417
sg29
g3433
sg30
(lp3435
g0
(g22
g2
Ntp3436
Rp3437
(dp3438
g26
g150
sg28
g3433
sg29
g3437
sg30
Nsg52
g53
sg54
Nsbag0
(g22
g2
Ntp3439
Rp3440
(dp3441
g26
g164
sg28
g3433
sg29
g3440
sg30
Nsg52
g53
sg54
Nsbasg52
g53
sg54
Nsbasg52
g53
sg54
Nsbag0
(g22
g2
Ntp3442
Rp3443
(dp3444
g26
g83
sg28
g3413
sg29
g3443
sg30
Nsg52
g53
sg54
Nsbasg52
g53
sg54
Nsbag0
(g22
g2
Ntp3445
Rp3446
(dp3447
g26
g63
sg28
g3409
sg29
g3446
sg30
Nsg52
g53
sg54
Nsbasg52
g53
sg54
Nsbag0
(g22
g2
Ntp3448
Rp3449
(dp3450
g26
g51
sg28
g3405
sg29
g3449
sg30
Nsg52
g53
sg54
Nsbasg52
g53
sg54
Nsbag0
(g22
g2
Ntp3451
Rp3452
(dp3453
g26
g154
sg28
g3401
sg29
g3452
sg30
Nsg52
g53
sg54
Nsbasg52
g53
sg54
Nsbag0
(g22
g2
Ntp3454
Rp3455
(dp3456
g26
g154
sg28
g3397
sg29
g3455
sg30
Nsg52
g53
sg54
Nsbasg52
g53
sg54
Nsbasg52
g55
sg54
Nsbag0
(g22
g2
Ntp3457
Rp3458
(dp3459
g26
g35
sg28
g3389
sg29
g3458
sg30
(lp3460
g0
(g22
g2
Ntp3461
Rp3462
(dp3463
g26
g46
sg28
g3458
sg29
g3462
sg30
(lp3464
g0
(g22
g2
Ntp3465
Rp3466
(dp3467
g26
g83
sg28
g3462
sg29
g3466
sg30
Nsg52
g53
sg54
Nsbasg52
g55
sg54
Nsbag0
(g22
g2
Ntp3468
Rp3469
(dp3470
g26
g46
sg28
g3458
sg29
g3469
sg30
(lp3471
g0
(g22
g2
Ntp3472
Rp3473
(dp3474
g26
g164
sg28
g3469
sg29
g3473
sg30
Nsg52
g53
sg54
Nsbasg52
g55
sg54
Nsbasg52
g55
sg54
Nsbasg52
g55
sg54
Nsbasg52
g84
sg54
Nsbsg85
F-17731.72854601797
sg86
g87
sg178
Nsg29
g180
sg215
Nsg216
g217
((dp3475
S'h i N'
p3476
I2
sS'g i g'
p3477
I5
sS'l i N'
p3478
I11
sS'g i k'
p3479
I6
sS't e k'
p3480
I3
sS'b e g'
p3481
I5
sS's i g'
p3482
I7
sS'b i g'
p3483
I4
sS'm e g'
p3484
I11
sS'l e g'
p3485
I3
sS'w i g'
p3486
I5
sS'z i k'
p3487
I10
sS'h e g'
p3488
I10
sS'w i k'
p3489
I3
sS'z i g'
p3490
I5
sS'h e k'
p3491
I4
sS's i k'
p3492
I2
sS'b i k'
p3493
I5
sS'm e k'
p3494
I5
sS'l e k'
p3495
I5
sS'b e k'
p3496
I3
sS'l i k'
p3497
I5
sS'h i k'
p3498
I7
sS'h i g'
p3499
I2
sS'g i N'
p3500
I6
sS'l i g'
p3501
I5
sS'z i N'
p3502
I3
sS'b i N'
p3503
I9
sS's i N'
p3504
I5
sS'l e N'
p3505
I2
sS'm e N'
p3506
I6
sS'w i N'
p3507
I6
sS'h e N'
p3508
I4
sS'f e N'
p3509
I12
sS'p i g'
p3510
I9
sS'N i N'
p3511
I5
sS'z e g'
p3512
I6
sS'd e k'
p3513
I5
sS'z e k'
p3514
I4
sS'd e g'
p3515
I3
sS'v i N'
p3516
I2
sS'p i k'
p3517
I1
sS'N e g'
p3518
I9
sS'r e N'
p3519
I4
sS's e N'
p3520
I5
sS'n e N'
p3521
I9
sS'f i k'
p3522
I1
sS'N e k'
p3523
I11
sS'f e k'
p3524
I8
sS'N i k'
p3525
I7
sS'd e N'
p3526
I4
sS'v i g'
p3527
I4
sS'v i k'
p3528
I4
sS'p i N'
p3529
I4
sS'z e N'
p3530
I8
sS'N i g'
p3531
I3
sS's e k'
p3532
I4
sS'n e g'
p3533
I5
sS'f e g'
p3534
I5
sS'N e N'
p3535
I2
sS's e g'
p3536
I5
sS'n e k'
p3537
I7
sS'n i k'
p3538
I7
sS't i k'
p3539
I4
sS'n i g'
p3540
I5
sS'v e N'
p3541
I5
sS'k i k'
p3542
I4
sS'k i g'
p3543
I7
sS'k e N'
p3544
I5
sS'd i N'
p3545
I7
sS'n i N'
p3546
I4
sS'r e k'
p3547
I6
sS't e N'
p3548
I7
sS't i N'
p3549
I3
sS'k i N'
p3550
I1
sS'k e g'
p3551
I4
sS'v e k'
p3552
I7
sS'd i g'
p3553
I6
sS'k e k'
p3554
I4
sS'v e g'
p3555
I5
sS'd i k'
p3556
I7
sS'g e N'
p3557
I4
sS'r i N'
p3558
I2
sS'w e N'
p3559
I4
sS'p e k'
p3560
I4
sS'b e N'
p3561
I11
sS'm i N'
p3562
I5
sS't e g'
p3563
I3
sS'p e g'
p3564
I2
sS'r i g'
p3565
I5
sS'g e k'
p3566
I2
sS'g e g'
p3567
I5
sS'f i N'
p3568
I3
sS'r i k'
p3569
I4
sS'r e g'
p3570
I6
sS'm i k'
p3571
I3
sS'w e k'
p3572
I1
sS'p e N'
p3573
I3
sS'w e g'
p3574
I8
sS'm i g'
p3575
I3
sS'f i g'
p3576
I6
stp3577
Rp3578
sg242
F-59.60391326054563
sg243
F1.0
sg244
g245
sg248
Nsg246
g247
sg249
I25
sbsbasS'unique_set'
p3579
c__builtin__
set
p3580
((lp3581
g897
ag16
ag562
ag506
ag784
ag1605
ag3000
ag1656
ag1525
ag754
ag1282
ag2054
ag3382
ag2819
ag1200
ag1318
ag642
ag1968
ag1840
ag1502
ag1445
ag2645
ag1102
ag1247
ag2166
ag929
ag1340
ag2246
ag2321
ag2116
ag2520
ag1570
ag180
ag820
ag1178
ag265
ag1422
ag1682
ag1124
ag1075
ag966
ag3188
ag2426
ag1030
ag693
ag449
ag860
ag1782
atp3582
Rp3583
sS'key'
p3584
g18
sg922
I100
sb.